ccollections
defaultdict
p0
(c__builtin__
set
p1
tp2
Rp3
L2372L
g1
((lp4
L6087L
aL2252L
aL2478L
aL4370L
aL4024L
aL9178L
atp5
Rp6
sL3368L
g1
((lp7
L6816L
aL4931L
aL13358L
aL8276L
aL11253L
aL8758L
aL9533L
atp8
Rp9
sL2396L
g1
((lp10
L192L
aL3535L
aL3156L
aL11637L
aL5268L
aL11742L
atp11
Rp12
sL2835L
g1
((lp13
L10596L
aL8644L
aL653L
aL3986L
aL9466L
aL8157L
atp14
Rp15
sL318L
g1
((lp16
L1697L
aL4871L
aL4011L
aL3308L
aL12181L
aL10679L
atp17
Rp18
sL444L
g1
((lp19
L6914L
aL3618L
aL4323L
aL13370L
aL5606L
aL1513L
aL5834L
aL6729L
aL8846L
aL12334L
aL7154L
aL6774L
aL3674L
aL4507L
atp20
Rp21
sL1449L
g1
((lp22
L514L
aL6500L
aL3763L
aL6099L
aL1271L
aL9407L
atp23
Rp24
sL2862L
g1
((lp25
L1952L
aL5189L
aL12490L
aL12334L
aL6233L
aL7194L
atp26
Rp27
sL705L
g1
((lp28
L2594L
aL6885L
aL7467L
aL10455L
aL8952L
aL9402L
aL3997L
atp29
Rp30
sL276L
g1
((lp31
L290L
aL12452L
aL7015L
aL4362L
aL10258L
aL5277L
atp32
Rp33
sL3214L
g1
((lp34
L13063L
aL7241L
aL4340L
aL6485L
aL10326L
aL12279L
atp35
Rp36
sL2754L
g1
((lp37
L9634L
aL1416L
aL334L
aL10162L
aL4916L
aL4436L
atp38
Rp39
sL2475L
g1
((lp40
L8353L
aL1634L
aL12239L
aL7574L
aL4472L
aL8859L
atp41
Rp42
sL1346L
g1
((lp43
L8453L
aL6535L
aL2571L
aL12049L
aL11538L
aL5403L
aL2478L
aL12334L
aL4024L
aL12866L
aL2252L
aL7374L
aL3923L
aL4442L
aL7267L
aL6377L
aL3950L
aL12016L
aL7282L
aL1278L
aL11391L
atp44
Rp45
sL1477L
g1
((lp46
L12769L
aL8011L
aL3704L
aL1370L
aL10622L
aL7615L
atp47
Rp48
sL78L
g1
((lp49
L5570L
aL7241L
aL2506L
aL2252L
aL12334L
aL2478L
aL3950L
aL4024L
aL1278L
atp50
Rp51
sL1514L
g1
((lp52
L5443L
aL3242L
aL1937L
aL3577L
aL2620L
atp53
Rp54
sL2481L
g1
((lp55
L7594L
aL8273L
aL8338L
aL9335L
aL1434L
aL1692L
atp56
Rp57
sL3170L
g1
((lp58
L13380L
aL12457L
aL8333L
aL10424L
aL7004L
atp59
Rp60
sL3228L
g1
((lp61
L5122L
aL12326L
aL6795L
aL5549L
aL6095L
aL9918L
atp62
Rp63
sL132L
g1
((lp64
L10048L
aL2786L
aL1255L
aL5493L
aL5846L
aL2687L
atp65
Rp66
sL3303L
g1
((lp67
L6016L
aL2252L
aL12334L
aL2478L
aL11538L
aL4024L
aL1278L
aL11391L
atp68
Rp69
sL1248L
g1
((lp70
L3456L
aL1285L
aL10066L
aL6038L
aL2297L
aL5978L
aL9628L
atp71
Rp72
sL167L
g1
((lp73
L9568L
aL4450L
aL6796L
aL8972L
aL6829L
aL5470L
atp74
Rp75
sL434L
g1
((lp76
L4931L
aL11468L
aL4751L
aL11253L
aL3002L
aL4988L
atp77
Rp78
sL1362L
g1
((lp79
L8544L
aL10594L
aL4367L
aL13263L
aL5493L
aL7837L
atp80
Rp81
sL616L
g1
((lp82
L1794L
aL10947L
aL2637L
aL8685L
aL1586L
aL7675L
atp83
Rp84
sL2744L
g1
((lp85
L8327L
aL12331L
aL13389L
aL3926L
aL11032L
aL4126L
atp86
Rp87
sL2936L
g1
((lp88
L3010L
aL12808L
aL12465L
aL3988L
aL10806L
aL5818L
aL6654L
atp89
Rp90
sL2813L
g1
((lp91
L9287L
aL6251L
aL7436L
aL13039L
aL7570L
aL6397L
aL12701L
atp92
Rp93
sL2560L
g1
((lp94
L4198L
aL11788L
aL12334L
aL399L
aL5618L
aL343L
aL13240L
aL1278L
atp95
Rp96
sL1253L
g1
((lp97
L4965L
aL11910L
aL7369L
aL10414L
aL12117L
aL4315L
aL7775L
atp98
Rp99
sL552L
g1
((lp100
L9289L
aL4217L
aL1667L
aL7837L
atp101
Rp102
sL3263L
g1
((lp103
L5252L
aL8261L
aL4525L
aL3313L
aL1010L
aL8049L
aL3572L
aL4724L
aL8763L
aL12859L
atp104
Rp105
sL2635L
g1
((lp106
L9408L
aL1632L
aL13283L
aL6277L
aL9862L
aL2599L
aL3208L
aL12903L
aL5806L
aL8655L
aL6904L
aL9117L
atp107
Rp108
sL1913L
g1
((lp109
L6122L
aL8215L
aL11253L
aL8855L
aL4988L
aL2559L
atp110
Rp111
sL2430L
g1
((lp112
L10659L
aL12528L
aL1880L
aL8440L
aL12923L
aL5213L
atp113
Rp114
sL716L
g1
((lp115
L2506L
aL2252L
aL12334L
aL2478L
aL816L
aL4024L
aL2490L
aL1755L
aL4958L
atp116
Rp117
sL158L
g1
((lp118
L6469L
aL3342L
aL5807L
aL12017L
aL4120L
aL11002L
atp119
Rp120
sL1400L
g1
((lp121
L4192L
aL10881L
aL11932L
aL12516L
aL486L
aL12874L
aL5712L
aL13136L
aL5756L
atp122
Rp123
sL859L
g1
((lp124
L1443L
aL13039L
aL7570L
aL1397L
aL11801L
aL11805L
aL4126L
atp125
Rp126
sL2582L
g1
((lp127
L6690L
aL1417L
aL1869L
aL243L
aL10297L
aL348L
atp128
Rp129
sL400L
g1
((lp130
L2594L
aL9549L
aL13263L
aL12306L
aL10261L
aL1782L
aL4540L
atp131
Rp132
sL11L
g1
((lp133
L706L
aL4579L
aL3205L
aL9301L
aL7001L
aL13210L
aL2879L
atp134
Rp135
sL373L
g1
((lp136
L8801L
aL546L
aL1249L
aL1061L
aL12455L
aL2601L
aL13130L
aL6955L
aL2797L
aL2384L
aL7637L
aL6910L
atp137
Rp138
sL524L
g1
((lp139
L7713L
aL5443L
aL9603L
aL3273L
aL10703L
aL7536L
aL10799L
aL13263L
aL5615L
aL12180L
aL8917L
aL1782L
aL11197L
atp140
Rp141
sL2706L
g1
((lp142
L8544L
aL11428L
aL3048L
aL12267L
aL7475L
aL4662L
aL571L
atp143
Rp144
sL2213L
g1
((lp145
L12384L
aL770L
aL6152L
aL4681L
aL8460L
aL10292L
atp146
Rp147
sL800L
g1
((lp148
L8993L
aL10658L
aL2793L
aL7948L
aL719L
aL7924L
atp149
Rp150
sL409L
g1
((lp151
L417L
aL8846L
aL11215L
aL7154L
aL4024L
aL4216L
atp152
Rp153
sL1923L
g1
((lp154
L6314L
aL12146L
aL3907L
aL3527L
atp155
Rp156
sL3280L
g1
((lp157
L7529L
aL2506L
aL11594L
aL2252L
aL12077L
aL12334L
aL1390L
aL2478L
aL8557L
aL3442L
aL1042L
aL13198L
aL10810L
aL3950L
aL4024L
aL11769L
aL921L
aL1278L
atp158
Rp159
sL3010L
g1
((lp160
L11650L
aL7816L
aL9106L
aL11934L
aL12064L
aL1188L
aL8101L
aL9512L
aL8618L
aL7468L
aL52L
aL11829L
aL2874L
aL8891L
aL10684L
aL9538L
aL3397L
aL12106L
aL9546L
aL8529L
aL7129L
aL7137L
aL3170L
aL9955L
aL7146L
aL10987L
aL10477L
aL5485L
aL6270L
atp161
Rp162
sL2721L
g1
((lp163
L12995L
aL76L
aL4371L
aL6675L
aL5493L
aL11134L
atp164
Rp165
sL2623L
g1
((lp166
L6625L
aL3619L
aL8500L
aL6868L
aL9174L
aL12188L
atp167
Rp168
sL698L
g1
((lp169
L8544L
aL10406L
aL7467L
aL13263L
aL2358L
atp170
Rp171
sL3354L
g1
((lp172
L10821L
aL1287L
aL11656L
aL6089L
aL7466L
aL5931L
aL10000L
atp173
Rp174
sL3355L
g1
((lp175
L10563L
aL11491L
aL838L
aL2069L
aL4824L
aL1694L
atp176
Rp177
sL1812L
g1
((lp178
L10979L
aL3588L
aL7070L
aL3796L
aL10132L
aL4158L
atp179
Rp180
sL3148L
g1
((lp181
L7267L
aL12809L
aL2506L
aL2478L
aL12334L
aL4024L
aL4093L
aL1278L
atp182
Rp183
sL226L
g1
((lp184
L6563L
aL12010L
aL12334L
aL49L
aL11122L
aL11287L
aL4024L
aL5403L
aL1278L
aL10975L
atp185
Rp186
sL2677L
g1
((lp187
L8135L
aL12903L
aL3273L
aL8651L
aL2092L
aL1677L
aL2193L
aL1271L
atp188
Rp189
sL1746L
g1
((lp190
L8582L
aL7752L
aL8234L
aL8621L
aL7662L
aL4175L
aL11575L
atp191
Rp192
sL683L
g1
((lp193
L2561L
aL4557L
aL4367L
aL13263L
aL9080L
aL2139L
aL8957L
atp194
Rp195
sL3232L
g1
((lp196
L2464L
aL5291L
aL11564L
aL9709L
aL7726L
aL12176L
aL11600L
atp197
Rp198
sL1663L
g1
((lp199
L5380L
aL10345L
aL11788L
aL12334L
aL4024L
aL1278L
atp200
Rp201
sL1657L
g1
((lp202
L13185L
aL5604L
aL5765L
aL11437L
aL6865L
aL5618L
aL11894L
aL1110L
aL473L
aL10586L
atp203
Rp204
sL163L
g1
((lp205
L1443L
aL3304L
aL13039L
aL10288L
aL6938L
aL11805L
aL4126L
atp206
Rp207
sL703L
g1
((lp208
L3175L
aL4751L
aL11253L
aL11833L
aL4988L
aL2559L
atp209
Rp210
sL788L
g1
((lp211
L4193L
aL12867L
aL9574L
aL10830L
aL3728L
aL7959L
aL829L
atp212
Rp213
sL2309L
g1
((lp214
L1217L
aL5999L
aL9680L
aL4911L
aL3356L
aL5055L
atp215
Rp216
sL1005L
g1
((lp217
L1898L
aL5683L
aL9029L
aL8677L
atp218
Rp219
sL1583L
g1
((lp220
L12671L
aL5512L
aL8137L
aL4970L
aL4543L
aL9425L
aL11191L
aL11377L
aL1781L
aL149L
aL10167L
aL7807L
atp221
Rp222
sL559L
g1
((lp223
L2594L
aL2565L
aL8341L
aL12313L
aL764L
aL8254L
atp224
Rp225
sL3039L
g1
((lp226
L5382L
aL1581L
aL5615L
aL1041L
aL4081L
aL12086L
atp227
Rp228
sL1201L
g1
((lp229
L12800L
aL13039L
aL7570L
aL12949L
aL413L
aL12701L
atp230
Rp231
sL2520L
g1
((lp232
L3461L
aL6950L
aL12334L
aL12146L
aL4024L
aL9818L
aL1278L
atp233
Rp234
sL2584L
g1
((lp235
L11169L
aL11468L
aL8755L
aL11253L
aL8758L
aL8855L
atp236
Rp237
sL956L
g1
((lp238
L5408L
aL9281L
aL10467L
aL6853L
aL13263L
aL7536L
aL339L
aL12180L
atp239
Rp240
sL2279L
g1
((lp241
L2149L
aL12394L
aL10289L
aL3577L
aL7806L
atp242
Rp243
sL3112L
g1
((lp244
L9669L
aL3335L
aL13385L
aL6135L
aL10068L
aL11415L
atp245
Rp246
sL2967L
g1
((lp247
L8608L
aL9282L
aL10562L
aL5828L
aL11780L
aL4840L
aL3211L
aL2252L
aL2478L
aL9877L
aL1020L
aL11391L
atp248
Rp249
sL2749L
g1
((lp250
L164L
aL12870L
aL12202L
aL876L
aL10966L
aL8375L
atp251
Rp252
sL22L
g1
((lp253
L3042L
aL1318L
aL2585L
aL7827L
aL13240L
aL10777L
aL9050L
atp254
Rp255
sL2990L
g1
((lp256
L8834L
aL7332L
aL6950L
aL6640L
aL1658L
aL8094L
atp257
Rp258
sL734L
g1
((lp259
L6276L
aL5512L
aL12078L
aL13363L
aL86L
aL1311L
atp260
Rp261
sL3235L
g1
((lp262
L9826L
aL803L
aL4707L
aL7919L
aL3031L
aL1080L
aL5147L
aL1758L
atp263
Rp264
sL2058L
g1
((lp265
L8227L
aL10661L
aL11112L
aL6344L
aL3242L
aL10760L
aL3503L
aL1616L
aL16L
aL10707L
aL2198L
aL12120L
aL10618L
atp266
Rp267
sL583L
g1
((lp268
L12166L
aL1607L
aL12334L
aL11282L
aL4024L
aL1278L
atp269
Rp270
sL610L
g1
((lp271
L12576L
aL2180L
aL4934L
aL8138L
aL4527L
aL6163L
atp272
Rp273
sL2729L
g1
((lp274
L5120L
aL13039L
aL10288L
aL12949L
aL4126L
aL10841L
aL3614L
atp275
Rp276
sL314L
g1
((lp277
L11204L
aL3237L
aL3752L
aL12887L
aL5303L
atp278
Rp279
sL2684L
g1
((lp280
L13156L
aL10600L
aL5993L
aL1360L
aL5015L
aL6489L
atp281
Rp282
sL278L
g1
((lp283
L5474L
aL6055L
aL5678L
aL9874L
aL7389L
aL13375L
atp284
Rp285
sL34L
g1
((lp286
L9576L
aL8781L
aL5806L
aL12334L
aL11695L
aL6865L
aL12855L
aL7612L
atp287
Rp288
sL1388L
g1
((lp289
L8742L
aL747L
aL7661L
aL12984L
aL4730L
aL9980L
atp290
Rp291
sL3313L
g1
((lp292
L10048L
aL5858L
aL8395L
aL11374L
aL6159L
aL4215L
aL8632L
atp293
Rp294
sL1806L
g1
((lp295
L2252L
aL1613L
aL2478L
aL12334L
aL6707L
aL4024L
aL11391L
atp296
Rp297
sL1033L
g1
((lp298
L13346L
aL7556L
aL12934L
aL200L
aL778L
aL6158L
aL12334L
aL816L
aL11473L
aL4151L
aL4024L
aL9818L
aL5403L
atp299
Rp300
sL2579L
g1
((lp301
L3970L
aL9669L
aL7510L
aL5175L
aL5562L
aL8509L
aL9535L
atp302
Rp303
sL3005L
g1
((lp304
L1858L
aL3822L
aL1809L
aL4629L
aL3868L
aL287L
atp305
Rp306
sL725L
g1
((lp307
L10369L
aL1667L
aL7689L
aL6636L
aL10350L
aL4176L
aL9488L
atp308
Rp309
sL1428L
g1
((lp310
L8835L
aL12683L
aL4751L
aL5328L
aL5365L
aL1951L
aL5853L
aL7199L
atp311
Rp312
sL286L
g1
((lp313
L8141L
aL11183L
aL3730L
aL4634L
aL7386L
aL5854L
atp314
Rp315
sL1652L
g1
((lp316
L11396L
aL10756L
aL12432L
aL9493L
aL3030L
aL6743L
atp317
Rp318
sL2181L
g1
((lp319
L2348L
aL1197L
aL12686L
aL4817L
aL9723L
atp320
Rp321
sL2023L
g1
((lp322
L1152L
aL1952L
aL6053L
aL9382L
aL2252L
aL3950L
aL2478L
aL12912L
aL12334L
aL13203L
aL4024L
aL1787L
aL1278L
atp323
Rp324
sL1614L
g1
((lp325
L8544L
aL13027L
aL12103L
aL8297L
aL13263L
aL9757L
atp326
Rp327
sL2670L
g1
((lp328
L595L
aL3404L
aL3917L
aL7238L
atp329
Rp330
sL2767L
g1
((lp331
L13263L
aL12944L
aL9329L
aL5849L
aL7837L
aL12958L
atp332
Rp333
sL2105L
g1
((lp334
L11805L
aL13039L
aL10288L
aL12949L
aL413L
aL4126L
atp335
Rp336
sL2197L
g1
((lp337
L8994L
aL6986L
aL11693L
aL8813L
aL8589L
aL1751L
aL4189L
aL1918L
atp338
Rp339
sL446L
g1
((lp340
L2241L
aL3973L
aL8043L
aL11215L
aL4367L
aL1019L
atp341
Rp342
sL771L
g1
((lp343
L5698L
aL12802L
aL7915L
aL12281L
aL9181L
atp344
Rp345
sL123L
g1
((lp346
L4931L
aL7365L
aL6098L
aL8755L
aL8276L
aL8758L
aL12348L
atp347
Rp348
sL2641L
g1
((lp349
L417L
aL3973L
aL12334L
aL11215L
aL7154L
aL4024L
atp350
Rp351
sL1975L
g1
((lp352
L11492L
aL3273L
aL12725L
aL8218L
aL4508L
aL11197L
atp353
Rp354
sL2032L
g1
((lp355
L5760L
aL11426L
aL5799L
aL3144L
aL1993L
aL1592L
aL11577L
aL9150L
atp356
Rp357
sL1396L
g1
((lp358
L7808L
aL9343L
aL11143L
aL3918L
aL4437L
aL3071L
atp359
Rp360
sL2202L
g1
((lp361
L9477L
aL6830L
aL13039L
aL7570L
aL11801L
aL12701L
atp362
Rp363
sL3051L
g1
((lp364
L5344L
aL1762L
aL13315L
aL6468L
aL2532L
aL9978L
aL173L
aL7727L
aL7728L
aL7057L
aL10767L
aL180L
aL2901L
aL6072L
aL3160L
aL13368L
aL8699L
atp365
Rp366
sL655L
g1
((lp367
L6853L
aL11120L
aL12985L
aL697L
aL7226L
atp368
Rp369
sL171L
g1
((lp370
L10658L
aL2092L
aL13361L
aL10386L
aL1271L
aL13370L
atp371
Rp372
sL2083L
g1
((lp373
L4935L
aL8328L
aL9321L
aL8843L
aL8277L
aL11485L
atp374
Rp375
sL177L
g1
((lp376
L10402L
aL7650L
aL10769L
aL9115L
aL3260L
aL2367L
atp377
Rp378
sL873L
g1
((lp379
L9985L
aL3973L
aL5606L
aL4873L
aL11215L
aL7154L
aL4216L
atp380
Rp381
sL1777L
g1
((lp382
L771L
aL3753L
aL7661L
aL9998L
aL11021L
aL3728L
aL12991L
aL570L
aL86L
aL5562L
aL9980L
aL829L
aL12543L
atp383
Rp384
sL937L
g1
((lp385
L3461L
aL6950L
aL6504L
aL427L
aL816L
aL1625L
atp386
Rp387
sL1800L
g1
((lp388
L11331L
aL11267L
aL11736L
aL683L
aL8396L
aL1933L
aL2609L
aL5233L
aL7314L
aL4276L
aL13271L
aL6008L
aL7899L
aL8221L
atp389
Rp390
sL1537L
g1
((lp391
L6848L
aL2594L
aL6050L
aL8686L
aL9940L
aL11669L
aL792L
aL7993L
aL9306L
aL2781L
aL6430L
aL7359L
atp392
Rp393
sL1378L
g1
((lp394
L7436L
aL13039L
aL10288L
aL7732L
aL413L
aL4126L
atp395
Rp396
sL3182L
g1
((lp397
L4257L
aL10309L
aL5545L
aL10425L
aL12797L
aL7615L
atp398
Rp399
sL63L
g1
((lp400
L10529L
aL5890L
aL2252L
aL2478L
aL12334L
aL8526L
aL11282L
aL7123L
aL4693L
aL4024L
aL7416L
aL2074L
aL6232L
aL1278L
aL11391L
atp401
Rp402
sL1216L
g1
((lp403
L9187L
aL8549L
aL11560L
aL5353L
aL1579L
aL4172L
aL5677L
aL8846L
aL6767L
aL2360L
aL3642L
aL222L
atp404
Rp405
sL991L
g1
((lp406
L3614L
aL13039L
aL7570L
aL5845L
aL6938L
aL12701L
aL4126L
atp407
Rp408
sL1631L
g1
((lp409
L6854L
aL12462L
aL10863L
aL6966L
aL12536L
aL1433L
atp410
Rp411
sL2361L
g1
((lp412
L4096L
aL12166L
aL6535L
aL6377L
aL8459L
aL1323L
aL1278L
aL5310L
atp413
Rp414
sL2456L
g1
((lp415
L2656L
aL10953L
aL6698L
aL4522L
aL5586L
aL3698L
atp416
Rp417
sL3002L
g1
((lp418
L2849L
aL7554L
aL11073L
aL4485L
aL2789L
aL1609L
aL842L
aL3979L
aL12044L
aL1036L
aL10574L
aL2317L
aL10576L
aL10065L
aL9846L
aL12215L
aL1913L
aL5820L
aL12157L
aL11612L
atp419
Rp420
sL3289L
g1
((lp421
L9287L
aL13039L
aL7570L
aL2873L
aL12701L
aL702L
atp422
Rp423
sL2727L
g1
((lp424
L9287L
aL13039L
aL10288L
aL12949L
aL4126L
aL4479L
atp425
Rp426
sL1175L
g1
((lp427
L10L
aL7851L
aL9654L
aL9784L
aL5977L
aL1052L
atp428
Rp429
sL1485L
g1
((lp430
L13059L
aL7107L
aL3273L
aL12725L
aL217L
aL346L
atp431
Rp432
sL871L
g1
((lp433
L9061L
aL2192L
aL13009L
aL7317L
aL5942L
aL6933L
atp434
Rp435
sL308L
g1
((lp436
L9291L
aL8971L
aL2676L
aL5615L
atp437
Rp438
sL2730L
g1
((lp439
L12000L
aL5806L
aL12334L
aL3509L
aL1278L
aL7423L
atp440
Rp441
sL579L
g1
((lp442
L12290L
aL7335L
aL4874L
aL10385L
aL4698L
aL13148L
atp443
Rp444
sL2482L
g1
((lp445
L6251L
aL13039L
aL5845L
aL11805L
aL3614L
aL4479L
atp446
Rp447
sL2270L
g1
((lp448
L2019L
aL6660L
aL7513L
aL12011L
aL8014L
aL13264L
aL5493L
aL3065L
aL10622L
atp449
Rp450
sL1605L
g1
((lp451
L13027L
aL10789L
aL9639L
aL8651L
aL3888L
aL7218L
aL11411L
aL4247L
atp452
Rp453
sL3187L
g1
((lp454
L5382L
aL7178L
aL3032L
aL7453L
aL12091L
aL4829L
atp455
Rp456
sL1683L
g1
((lp457
L417L
aL7428L
aL4198L
aL7624L
aL1611L
aL12046L
aL12334L
aL13240L
aL4024L
aL10777L
aL1278L
atp458
Rp459
sL2852L
g1
((lp460
L13039L
aL10288L
aL7570L
aL4126L
aL12701L
aL413L
atp461
Rp462
sL3047L
g1
((lp463
L12800L
aL10601L
aL13039L
aL10288L
aL5845L
aL4126L
atp464
Rp465
sL3064L
g1
((lp466
L4873L
aL12334L
aL8846L
aL10777L
aL12059L
atp467
Rp468
sL3153L
g1
((lp469
L1984L
aL12961L
aL3619L
aL11428L
aL199L
aL4492L
aL6868L
aL6746L
atp470
Rp471
sL3314L
g1
((lp472
L3457L
aL4743L
aL10409L
aL7153L
aL8406L
aL3868L
atp473
Rp474
sL1399L
g1
((lp475
L6048L
aL6242L
aL3658L
aL10032L
aL12083L
aL9462L
atp476
Rp477
sL1413L
g1
((lp478
L3331L
aL8870L
aL8072L
aL362L
aL1547L
aL2959L
atp479
Rp480
sL180L
g1
((lp481
L8834L
aL9188L
aL8662L
aL11449L
aL12090L
aL9596L
atp482
Rp483
sL1294L
g1
((lp484
L9217L
aL676L
aL2473L
aL11151L
aL6736L
aL10303L
atp485
Rp486
sL3146L
g1
((lp487
L11841L
aL11015L
aL3147L
aL6029L
aL11662L
aL370L
aL7733L
atp488
Rp489
sL3221L
g1
((lp490
L417L
aL4873L
aL5132L
aL12334L
aL7984L
aL7154L
aL4024L
aL10777L
aL4216L
aL1278L
atp491
Rp492
sL1085L
g1
((lp493
L3371L
aL11630L
aL10514L
aL7125L
aL3447L
aL8153L
atp494
Rp495
sL630L
g1
((lp496
L9477L
aL11336L
aL5845L
aL11801L
aL11805L
aL413L
atp497
Rp498
sL3245L
g1
((lp499
L3614L
aL6251L
aL13039L
aL6938L
aL6397L
aL4126L
atp500
Rp501
sL952L
g1
((lp502
L3614L
aL13039L
aL10288L
aL12949L
aL4126L
aL4479L
atp503
Rp504
sL2143L
g1
((lp505
L3461L
aL10249L
aL13228L
aL3917L
aL5870L
aL9399L
aL9818L
atp506
Rp507
sL398L
g1
((lp508
L10625L
aL772L
aL3365L
aL2217L
aL12201L
aL10249L
aL9004L
aL13200L
aL5692L
aL7389L
atp509
Rp510
sL1105L
g1
((lp511
L12842L
aL3215L
aL4433L
aL1137L
aL11960L
aL9371L
aL7868L
atp512
Rp513
sL3233L
g1
((lp514
L10983L
aL1613L
aL11823L
aL5402L
aL1946L
aL8767L
atp515
Rp516
sL2440L
g1
((lp517
L3267L
aL10920L
aL4841L
aL12626L
aL11412L
aL7961L
atp518
Rp519
sL720L
g1
((lp520
L2241L
aL7782L
aL5132L
aL12334L
aL11215L
aL8217L
aL1278L
atp521
Rp522
sL1409L
g1
((lp523
L11717L
aL9656L
aL8358L
aL3624L
aL2510L
aL1974L
aL12183L
aL1816L
aL3581L
atp524
Rp525
sL1581L
g1
((lp526
L3048L
aL3756L
aL822L
aL4662L
aL10102L
aL764L
atp527
Rp528
sL2238L
g1
((lp529
L10249L
aL2313L
aL12334L
aL151L
aL4187L
aL1278L
atp530
Rp531
sL142L
g1
((lp532
L2912L
aL7360L
aL5566L
aL13193L
aL12471L
aL12986L
aL1630L
aL11935L
atp533
Rp534
sL125L
g1
((lp535
L1632L
aL2599L
aL3208L
aL12334L
aL5806L
aL6642L
aL12759L
aL572L
aL9117L
aL2206L
atp536
Rp537
sL2308L
g1
((lp538
L9281L
aL6339L
aL7536L
aL8917L
aL3736L
aL7803L
aL7615L
atp539
Rp540
sL200L
g1
((lp541
L9666L
aL9763L
aL136L
aL6890L
aL26L
aL9630L
atp542
Rp543
sL618L
g1
((lp544
L10849L
aL11586L
aL13346L
aL8773L
aL12394L
aL5195L
aL7086L
aL5616L
aL1041L
aL11025L
aL7219L
aL12278L
aL12924L
aL4319L
atp545
Rp546
sL1211L
g1
((lp547
L6692L
aL11628L
aL11928L
aL10479L
aL11060L
aL4440L
atp548
Rp549
sL1093L
g1
((lp550
L11494L
aL3374L
aL5743L
aL8594L
aL9588L
aL11028L
atp551
Rp552
sL2969L
g1
((lp553
L9248L
aL12386L
aL3208L
aL11945L
aL5806L
aL7439L
aL212L
aL2645L
aL8823L
aL12251L
atp554
Rp555
sL1807L
g1
((lp556
L3744L
aL8607L
aL6193L
aL5618L
aL5881L
aL1110L
aL5785L
aL5533L
aL7327L
atp557
Rp558
sL3074L
g1
((lp559
L4193L
aL9574L
aL3759L
aL8530L
aL12984L
atp560
Rp561
sL1533L
g1
((lp562
L9445L
aL1895L
aL7565L
aL9646L
aL1556L
aL1210L
atp563
Rp564
sL2402L
g1
((lp565
L417L
aL4353L
aL10252L
aL8111L
aL12688L
aL3478L
aL2360L
atp566
Rp567
sL3014L
g1
((lp568
L3960L
aL1818L
aL3468L
aL6615L
atp569
Rp570
sL2675L
g1
((lp571
L3971L
aL1989L
aL1511L
aL11659L
aL8845L
aL4653L
aL9105L
aL3516L
atp572
Rp573
sL894L
g1
((lp574
L8544L
aL2594L
aL12394L
aL690L
aL12855L
aL8217L
atp575
Rp576
sL976L
g1
((lp577
L6502L
aL12967L
aL7147L
aL11474L
aL1362L
aL826L
atp578
Rp579
sL809L
g1
((lp580
L7617L
aL5190L
aL11468L
aL12942L
aL8855L
aL11833L
aL12863L
atp581
Rp582
sL70L
g1
((lp583
L4931L
aL4751L
aL8755L
aL11253L
aL8855L
aL12348L
atp584
Rp585
sL740L
g1
((lp586
L3009L
aL3745L
aL6311L
aL5320L
aL4264L
aL8238L
aL10524L
atp587
Rp588
sL1397L
g1
((lp589
L2084L
aL3973L
aL7590L
aL11215L
aL12759L
aL3997L
atp590
Rp591
sL808L
g1
((lp592
L5441L
aL4163L
aL8071L
aL2410L
aL973L
aL947L
aL10036L
aL5749L
aL441L
aL8922L
atp593
Rp594
sL1658L
g1
((lp595
L2596L
aL11622L
aL9734L
aL2699L
aL11820L
aL1677L
aL3997L
aL7919L
aL4699L
aL7837L
atp596
Rp597
sL1L
g1
((lp598
L7153L
aL10802L
aL150L
aL8406L
aL2781L
aL7359L
atp599
Rp600
sL2467L
g1
((lp601
L3316L
aL5172L
aL3445L
aL4600L
aL9787L
aL7486L
atp602
Rp603
sL2040L
g1
((lp604
L8129L
aL2788L
aL3366L
aL6438L
aL11528L
aL5033L
aL6699L
aL7852L
aL13326L
aL2318L
aL1936L
aL1840L
aL6224L
aL8499L
aL7478L
aL9143L
aL8054L
aL10460L
aL7455L
atp605
Rp606
sL2555L
g1
((lp607
L12800L
aL13039L
aL10288L
aL12949L
aL4126L
aL3614L
atp608
Rp609
sL736L
g1
((lp610
L11968L
aL5730L
aL267L
aL4501L
atp611
Rp612
sL3115L
g1
((lp613
L323L
aL2252L
aL12334L
aL2478L
aL4024L
aL1499L
atp614
Rp615
sL2652L
g1
((lp616
L3012L
aL9287L
aL7436L
aL13039L
aL5845L
aL413L
atp617
Rp618
sL566L
g1
((lp619
L7436L
aL11801L
aL13039L
aL12949L
aL10841L
aL413L
aL3614L
atp620
Rp621
sL3304L
g1
((lp622
L10378L
aL7436L
aL13039L
aL7570L
aL11801L
aL6397L
atp623
Rp624
sL1606L
g1
((lp625
L1476L
aL1065L
aL7596L
aL492L
aL692L
aL10045L
atp626
Rp627
sL1981L
g1
((lp628
L4200L
aL10344L
aL12202L
aL10668L
aL10966L
aL6044L
atp629
Rp630
sL72L
g1
((lp631
L3809L
aL6242L
aL10310L
aL1896L
aL1333L
aL10009L
atp632
Rp633
sL1192L
g1
((lp634
L8103L
aL3017L
aL12586L
aL501L
aL12469L
aL633L
aL5114L
atp635
Rp636
sL1688L
g1
((lp637
L801L
aL1091L
aL132L
aL12805L
aL8632L
aL6949L
aL6339L
aL5034L
aL12012L
aL11374L
aL6159L
aL12760L
aL9919L
atp638
Rp639
sL1612L
g1
((lp640
L12334L
aL782L
aL4024L
aL5403L
aL1278L
aL1407L
atp641
Rp642
sL2427L
g1
((lp643
L1801L
aL43L
aL11756L
aL878L
aL9681L
aL8178L
aL6451L
aL9560L
aL7615L
atp644
Rp645
sL2446L
g1
((lp646
L6977L
aL8834L
aL6950L
aL12334L
aL1300L
aL4340L
atp647
Rp648
sL709L
g1
((lp649
L5571L
aL12644L
aL4422L
aL3575L
aL11742L
atp650
Rp651
sL2376L
g1
((lp652
L3201L
aL5028L
aL2198L
aL3927L
aL3898L
aL10651L
atp653
Rp654
sL1075L
g1
((lp655
L5132L
aL8846L
aL12334L
aL4024L
aL4216L
aL10777L
aL1278L
atp656
Rp657
sL1511L
g1
((lp658
L3973L
aL13254L
aL13354L
aL4238L
aL2351L
aL7154L
aL1658L
atp659
Rp660
sL1867L
g1
((lp661
L8834L
aL7817L
aL9490L
aL1938L
aL11029L
aL1020L
atp662
Rp663
sL2505L
g1
((lp664
L3614L
aL6251L
aL13039L
aL656L
aL4126L
aL4479L
atp665
Rp666
sL1099L
g1
((lp667
L1825L
aL5413L
aL8840L
aL1486L
aL11322L
aL12413L
atp668
Rp669
sL394L
g1
((lp670
L5385L
aL2252L
aL12334L
aL11918L
aL2478L
aL4024L
aL923L
atp671
Rp672
sL934L
g1
((lp673
L192L
aL3535L
aL3156L
aL5268L
aL2230L
aL6201L
atp674
Rp675
sL147L
g1
((lp676
L13039L
aL10288L
aL12949L
aL4126L
aL11805L
aL3614L
atp677
Rp678
sL1460L
g1
((lp679
L4033L
aL6535L
aL8459L
aL6129L
aL3866L
aL1278L
atp680
Rp681
sL2205L
g1
((lp682
L3744L
aL13185L
aL12334L
aL1110L
aL4024L
aL5208L
aL4381L
aL7327L
atp683
Rp684
sL3025L
g1
((lp685
L3304L
aL13039L
aL10288L
aL7570L
aL6397L
aL4126L
atp686
Rp687
sL1205L
g1
((lp688
L12705L
aL9890L
aL7534L
aL12150L
aL6552L
aL2107L
atp689
Rp690
sL1922L
g1
((lp691
L5027L
aL12070L
aL7561L
aL6925L
aL7063L
aL4826L
aL1434L
atp692
Rp693
sL626L
g1
((lp694
L4034L
aL1814L
aL7160L
aL3929L
aL2460L
atp695
Rp696
sL1375L
g1
((lp697
L3429L
aL12647L
aL11080L
aL6953L
aL9674L
aL2994L
aL5843L
aL10164L
aL10013L
atp698
Rp699
sL2906L
g1
((lp700
L6380L
aL3348L
aL13239L
aL3255L
aL12830L
atp701
Rp702
sL3323L
g1
((lp703
L356L
aL9543L
aL9451L
aL12846L
aL4239L
aL12151L
atp704
Rp705
sL1244L
g1
((lp706
L323L
aL6950L
aL2252L
aL12334L
aL4024L
aL11391L
atp707
Rp708
sL3198L
g1
((lp709
L11173L
aL9579L
aL6476L
aL6030L
aL5457L
aL11925L
aL825L
aL11066L
aL4670L
aL31L
atp710
Rp711
sL1883L
g1
((lp712
L3936L
aL12424L
aL1097L
aL3089L
aL10196L
aL10519L
aL12189L
atp713
Rp714
sL878L
g1
((lp715
L9931L
aL3343L
aL5617L
aL12277L
aL13239L
aL10172L
atp716
Rp717
sL1994L
g1
((lp718
L5125L
aL11658L
aL8458L
aL1804L
aL11533L
aL9101L
aL9109L
aL5910L
aL9375L
aL10416L
aL1073L
aL6964L
aL4920L
aL11333L
aL329L
aL11228L
aL10462L
aL8416L
aL2027L
aL6383L
aL5748L
aL7540L
aL1916L
atp719
Rp720
sL2407L
g1
((lp721
L9669L
aL5512L
aL11021L
aL8434L
aL9395L
aL4437L
aL7517L
atp722
Rp723
sL1741L
g1
((lp724
L5827L
aL12333L
aL6031L
aL10866L
aL3541L
aL2878L
atp725
Rp726
sL3236L
g1
((lp727
L8384L
aL3162L
aL560L
aL1301L
aL7418L
aL9470L
atp728
Rp729
sL53L
g1
((lp730
L5442L
aL10180L
aL10381L
aL3220L
aL2740L
aL341L
atp731
Rp732
sL1051L
g1
((lp733
L1798L
aL11413L
aL5595L
aL10711L
aL8667L
aL892L
atp734
Rp735
sL2410L
g1
((lp736
L5376L
aL12165L
aL9125L
aL12522L
aL4757L
aL7038L
atp737
Rp738
sL3188L
g1
((lp739
L1985L
aL6850L
aL169L
aL7469L
aL2610L
aL6230L
atp740
Rp741
sL2119L
g1
((lp742
L7045L
aL2566L
aL1388L
aL9009L
aL11383L
aL12666L
aL13375L
atp743
Rp744
sL1147L
g1
((lp745
L2529L
aL3973L
aL7655L
aL4873L
aL11215L
aL13264L
aL6865L
aL7154L
aL1014L
atp746
Rp747
sL500L
g1
((lp748
L4224L
aL6658L
aL4330L
aL6865L
aL12855L
atp749
Rp750
sL120L
g1
((lp751
L10560L
aL13255L
aL10289L
aL8179L
aL3577L
aL2687L
atp752
Rp753
sL1941L
g1
((lp754
L8544L
aL8161L
aL7536L
aL8917L
aL1658L
atp755
Rp756
sL2235L
g1
((lp757
L12169L
aL5933L
aL5905L
aL9433L
aL1275L
aL2334L
atp758
Rp759
sL1789L
g1
((lp760
L10245L
aL12103L
aL4168L
aL8360L
aL4367L
aL24L
atp761
Rp762
sL1257L
g1
((lp763
L12240L
aL4593L
aL339L
aL5846L
aL11096L
aL3577L
aL2687L
atp764
Rp765
sL1090L
g1
((lp766
L9986L
aL8004L
aL3625L
aL12334L
aL3822L
aL8346L
atp767
Rp768
sL2853L
g1
((lp769
L10211L
aL1763L
aL10633L
aL4024L
aL5403L
aL5310L
atp770
Rp771
sL753L
g1
((lp772
L8897L
aL6310L
aL13263L
aL7226L
aL12604L
aL10622L
atp773
Rp774
sL3108L
g1
((lp775
L6251L
aL13039L
aL7570L
aL4126L
aL11805L
aL3614L
atp776
Rp777
sL340L
g1
((lp778
L3365L
aL3757L
aL5617L
aL2004L
aL4758L
aL7389L
atp779
Rp780
sL650L
g1
((lp781
L4224L
aL3681L
aL388L
aL4456L
aL5034L
atp782
Rp783
sL512L
g1
((lp784
L417L
aL12334L
aL13240L
aL4024L
aL10777L
aL4381L
atp785
Rp786
sL2745L
g1
((lp787
L7104L
aL9639L
aL10760L
aL5597L
aL7806L
atp788
Rp789
sL1198L
g1
((lp790
L11202L
aL7138L
aL3367L
aL7186L
aL8183L
aL1086L
atp791
Rp792
sL1407L
g1
((lp793
L1024L
aL6724L
aL3557L
aL490L
aL9231L
aL9532L
atp794
Rp795
sL1225L
g1
((lp796
L9603L
aL10509L
aL10386L
aL1428L
aL10398L
aL12063L
aL7969L
aL2468L
aL11824L
aL8243L
aL1083L
aL11197L
aL10825L
aL2001L
aL1247L
aL9447L
aL5615L
aL3440L
aL2678L
aL7417L
aL12282L
aL2043L
atp797
Rp798
sL305L
g1
((lp799
L6251L
aL13039L
aL656L
aL10288L
aL4126L
aL4479L
atp800
Rp801
sL1401L
g1
((lp802
L7488L
aL1761L
aL3078L
aL10637L
aL7213L
aL6333L
atp803
Rp804
sL656L
g1
((lp805
L1985L
aL4865L
aL9315L
aL169L
aL5453L
aL8016L
aL2195L
aL10580L
aL12053L
aL12917L
aL9019L
aL7167L
atp806
Rp807
sL721L
g1
((lp808
L4418L
aL12559L
aL369L
aL9201L
aL4788L
aL5279L
atp809
Rp810
sL634L
g1
((lp811
L2561L
aL7139L
aL4168L
aL9832L
aL2320L
aL8112L
aL7837L
atp812
Rp813
sL2519L
g1
((lp814
L10089L
aL5067L
aL4908L
aL6330L
aL12283L
aL5343L
atp815
Rp816
sL897L
g1
((lp817
L13039L
aL6608L
aL656L
aL7570L
aL11801L
aL12701L
atp818
Rp819
sL199L
g1
((lp820
L12800L
aL7872L
aL2050L
aL1443L
aL9477L
aL11336L
aL6569L
aL5845L
aL11805L
aL413L
atp821
Rp822
sL184L
g1
((lp823
L12833L
aL10787L
aL10093L
aL465L
aL2611L
aL7263L
atp824
Rp825
sL1406L
g1
((lp826
L5504L
aL2786L
aL4518L
aL9898L
aL8561L
aL4347L
atp827
Rp828
sL575L
g1
((lp829
L4928L
aL12491L
aL2252L
aL12334L
aL2478L
aL4024L
aL8094L
aL11391L
atp830
Rp831
sL417L
g1
((lp832
L13153L
aL11368L
aL10635L
aL7660L
aL3382L
aL11355L
atp833
Rp834
sL3091L
g1
((lp835
L11805L
aL3614L
aL13039L
aL7570L
aL413L
aL12701L
atp836
Rp837
sL2980L
g1
((lp838
L4298L
aL11468L
aL4751L
aL11253L
aL8855L
aL4988L
atp839
Rp840
sL739L
g1
((lp841
L8834L
aL2252L
aL12334L
aL2478L
aL4024L
aL11391L
atp842
Rp843
sL2030L
g1
((lp844
L2688L
aL13190L
aL9383L
aL336L
aL6579L
aL9144L
atp845
Rp846
sL847L
g1
((lp847
L12485L
aL4902L
aL6094L
aL4024L
aL12379L
atp848
Rp849
sL757L
g1
((lp850
L8544L
aL10048L
aL10594L
aL9827L
aL7715L
aL10245L
aL10406L
aL1255L
aL11498L
aL13263L
aL12048L
aL7536L
aL2358L
aL5913L
aL1018L
aL347L
aL2076L
aL2687L
atp851
Rp852
sL3344L
g1
((lp853
L3360L
aL2248L
aL9616L
aL981L
aL7737L
atp854
Rp855
sL3178L
g1
((lp856
L10567L
aL12172L
aL2352L
aL8113L
aL10905L
aL5726L
atp857
Rp858
sL519L
g1
((lp859
L9669L
aL3753L
aL1676L
aL11191L
aL8569L
aL8188L
atp860
Rp861
sL1410L
g1
((lp862
L6339L
aL7016L
aL13263L
aL12531L
aL8632L
aL12059L
atp863
Rp864
sL3021L
g1
((lp865
L11777L
aL11305L
aL10346L
aL9995L
aL5647L
aL5520L
atp866
Rp867
sL1854L
g1
((lp868
L3361L
aL1012L
aL12245L
aL10068L
aL3740L
atp869
Rp870
sL3184L
g1
((lp871
L2084L
aL3208L
aL12334L
aL9488L
aL9716L
aL1658L
aL1278L
atp872
Rp873
sL1236L
g1
((lp874
L5762L
aL9604L
aL5710L
aL9559L
aL1786L
aL6492L
atp875
Rp876
sL2907L
g1
((lp877
L1888L
aL290L
aL4612L
aL3558L
aL3015L
aL12584L
aL7591L
aL12202L
aL12875L
aL2475L
aL6031L
aL5743L
aL7281L
aL7122L
aL8050L
aL5277L
aL7965L
aL2239L
atp878
Rp879
sL3299L
g1
((lp880
L10249L
aL12459L
aL6158L
aL12334L
aL4024L
aL1278L
atp881
Rp882
sL3301L
g1
((lp883
L12000L
aL2433L
aL8544L
aL9827L
aL2507L
aL7467L
aL11374L
aL4367L
atp884
Rp885
sL2912L
g1
((lp886
L11595L
aL2252L
aL12334L
aL2478L
aL4024L
aL11391L
atp887
Rp888
sL2498L
g1
((lp889
L1189L
aL9415L
aL8745L
aL44L
aL8784L
aL11409L
aL9244L
atp890
Rp891
sL1179L
g1
((lp892
L11392L
aL10210L
aL6339L
aL12933L
aL9598L
aL5247L
atp893
Rp894
sL1538L
g1
((lp895
L9827L
aL7715L
aL12395L
aL10035L
aL8151L
aL6363L
atp896
Rp897
sL466L
g1
((lp898
L11681L
aL8837L
aL1864L
aL2120L
aL5003L
aL4462L
aL1007L
aL10067L
aL2421L
aL4795L
atp899
Rp900
sL2995L
g1
((lp901
L13039L
aL4126L
aL6938L
aL11805L
aL3614L
atp902
Rp903
sL2018L
g1
((lp904
L1443L
aL13039L
aL10288L
aL7570L
aL12701L
aL4126L
atp905
Rp906
sL454L
g1
((lp907
L1192L
aL2026L
aL5071L
aL12848L
aL7444L
aL9621L
aL1943L
aL2236L
atp908
Rp909
sL970L
g1
((lp910
L9669L
aL13066L
aL7923L
aL2996L
aL10068L
aL1012L
aL6135L
atp911
Rp912
sL168L
g1
((lp913
L1418L
aL7499L
aL11504L
aL8754L
aL12696L
aL4635L
atp914
Rp915
sL390L
g1
((lp916
L6950L
aL1031L
aL6090L
aL12334L
aL12020L
aL4024L
atp917
Rp918
sL1169L
g1
((lp919
L3457L
aL3274L
aL9900L
aL3822L
aL8275L
atp920
Rp921
sL667L
g1
((lp922
L3081L
aL9547L
aL5964L
aL6671L
aL2458L
aL11902L
atp923
Rp924
sL439L
g1
((lp925
L6205L
aL1011L
aL6715L
aL5915L
aL3197L
atp926
Rp927
sL1210L
g1
((lp928
L2252L
aL2478L
aL12334L
aL977L
aL5330L
aL4024L
aL11391L
atp929
Rp930
sL448L
g1
((lp931
L9729L
aL6434L
aL1893L
aL10407L
aL4903L
aL2953L
aL1819L
aL1438L
atp932
Rp933
sL418L
g1
((lp934
L10793L
aL301L
aL8977L
aL1170L
aL11896L
aL3641L
atp935
Rp936
sL2927L
g1
((lp937
L8327L
aL12331L
aL10288L
aL4374L
aL11032L
aL10300L
atp938
Rp939
sL215L
g1
((lp940
L13153L
aL2917L
aL10635L
aL13299L
aL2971L
atp941
Rp942
sL188L
g1
((lp943
L12832L
aL417L
aL7590L
aL715L
aL12334L
aL5806L
aL6865L
aL4024L
aL10777L
atp944
Rp945
sL1296L
g1
((lp946
L2149L
aL3210L
aL9163L
aL8343L
aL88L
aL4702L
atp947
Rp948
sL1903L
g1
((lp949
L12263L
aL2252L
aL2478L
aL12334L
aL5174L
aL4024L
atp950
Rp951
sL678L
g1
((lp952
L5385L
aL2252L
aL3950L
aL5870L
aL12334L
aL2478L
aL4024L
aL1278L
atp953
Rp954
sL326L
g1
((lp955
L1952L
aL6053L
aL2252L
aL2478L
aL4024L
aL9818L
atp956
Rp957
sL3334L
g1
((lp958
L12644L
aL1064L
aL9770L
aL3673L
aL7066L
aL4572L
atp959
Rp960
sL979L
g1
((lp961
L10692L
aL5573L
aL7687L
aL4921L
aL6073L
aL8476L
atp962
Rp963
sL816L
g1
((lp964
L196L
aL9669L
aL4326L
aL12132L
aL6573L
aL7923L
aL6196L
aL729L
aL4444L
atp965
Rp966
sL3267L
g1
((lp967
L13125L
aL12202L
aL459L
aL6828L
aL2316L
aL528L
atp968
Rp969
sL2073L
g1
((lp970
L2594L
aL7467L
aL12395L
aL8846L
aL7025L
aL11290L
atp971
Rp972
sL1676L
g1
((lp973
L10371L
aL707L
aL12805L
aL5606L
aL11081L
aL10351L
aL1658L
atp974
Rp975
sL1280L
g1
((lp976
L12713L
aL13358L
aL4751L
aL11253L
aL8855L
atp977
Rp978
sL2173L
g1
((lp979
L10048L
aL6052L
aL2694L
aL9479L
aL5640L
aL11113L
aL4456L
aL13323L
aL5616L
aL2834L
aL4893L
atp980
Rp981
sL1223L
g1
((lp982
L12801L
aL1602L
aL1894L
aL5773L
aL9039L
aL6737L
aL12722L
aL9330L
atp983
Rp984
sL1841L
g1
((lp985
L11271L
aL4714L
aL11505L
aL10834L
aL9496L
aL3386L
aL4734L
atp986
Rp987
sL3052L
g1
((lp988
L1607L
aL9838L
aL12334L
aL7095L
aL4024L
aL1278L
atp989
Rp990
sL2737L
g1
((lp991
L2417L
aL12164L
aL1505L
aL10886L
atp992
Rp993
sL1609L
g1
((lp994
L11362L
aL9891L
aL5254L
aL5579L
aL8940L
aL12990L
atp995
Rp996
sL1174L
g1
((lp997
L355L
aL5288L
aL6799L
aL1905L
aL2518L
aL7929L
aL5533L
atp998
Rp999
sL1767L
g1
((lp1000
L6243L
aL10565L
aL5043L
aL11928L
aL9690L
aL2654L
atp1001
Rp1002
sL2352L
g1
((lp1003
L6337L
aL1287L
aL7466L
aL10000L
aL5649L
aL12505L
atp1004
Rp1005
sL1304L
g1
((lp1006
L5734L
aL2407L
aL10737L
aL12628L
aL3644L
aL10495L
atp1007
Rp1008
sL1165L
g1
((lp1009
L9921L
aL8132L
aL8900L
aL2693L
aL7048L
aL5598L
atp1010
Rp1011
sL2572L
g1
((lp1012
L3843L
aL6855L
aL1236L
aL10549L
aL7640L
aL4313L
aL3578L
atp1013
Rp1014
sL2021L
g1
((lp1015
L323L
aL7974L
aL3799L
aL4140L
aL11629L
aL1552L
aL688L
aL12689L
aL6195L
aL5139L
aL6929L
aL8759L
aL8415L
atp1016
Rp1017
sL829L
g1
((lp1018
L4941L
aL2941L
aL10884L
aL9885L
atp1019
Rp1020
sL2383L
g1
((lp1021
L4834L
aL2695L
aL2248L
aL13039L
aL3535L
aL7737L
atp1022
Rp1023
sL2065L
g1
((lp1024
L12736L
aL12707L
aL8486L
aL6351L
aL8271L
aL8465L
aL2258L
aL4984L
aL1272L
aL11708L
aL12316L
aL10877L
atp1025
Rp1026
sL1282L
g1
((lp1027
L417L
aL5666L
aL6596L
aL7854L
aL8846L
aL7984L
aL4024L
atp1028
Rp1029
sL622L
g1
((lp1030
L7144L
aL2891L
aL11279L
aL12242L
aL9044L
aL4760L
atp1031
Rp1032
sL1708L
g1
((lp1033
L3745L
aL6307L
aL5932L
aL6541L
aL6606L
aL5967L
aL9394L
aL13204L
aL6326L
aL919L
aL9689L
aL250L
aL11709L
aL7071L
atp1034
Rp1035
sL2587L
g1
((lp1036
L13344L
aL5283L
aL12778L
aL5422L
aL11414L
aL10712L
atp1037
Rp1038
sL2218L
g1
((lp1039
L6754L
aL2087L
aL7115L
aL12335L
aL10581L
aL11160L
atp1040
Rp1041
sL1808L
g1
((lp1042
L12928L
aL12061L
aL920L
aL9243L
aL6077L
aL13022L
atp1043
Rp1044
sL1521L
g1
((lp1045
L11233L
aL12936L
aL12810L
aL5806L
aL12334L
aL3026L
aL3509L
atp1046
Rp1047
sL3139L
g1
((lp1048
L9088L
aL9954L
aL5884L
aL12197L
aL12041L
aL2411L
aL4755L
aL3604L
aL11702L
aL11961L
aL1914L
aL5243L
aL6076L
aL29L
aL2911L
atp1049
Rp1050
sL675L
g1
((lp1051
L2593L
aL5090L
aL4322L
aL2310L
aL12488L
aL4490L
aL10609L
aL918L
aL1535L
atp1052
Rp1053
sL2752L
g1
((lp1054
L3079L
aL1417L
aL7018L
aL2636L
aL2257L
aL13144L
atp1055
Rp1056
sL1497L
g1
((lp1057
L13059L
aL104L
aL1135L
aL12944L
aL12725L
aL217L
aL10622L
atp1058
Rp1059
sL79L
g1
((lp1060
L2433L
aL9281L
aL388L
aL12805L
aL3217L
aL8917L
aL9786L
atp1061
Rp1062
sL1134L
g1
((lp1063
L9952L
aL9288L
aL296L
aL6219L
aL10449L
aL12507L
aL1406L
atp1064
Rp1065
sL1132L
g1
((lp1066
L11330L
aL873L
aL6229L
aL6133L
aL12761L
aL2267L
atp1067
Rp1068
sL2761L
g1
((lp1069
L7424L
aL4931L
aL229L
aL5190L
aL11468L
aL12942L
aL8758L
aL12863L
atp1070
Rp1071
sL2965L
g1
((lp1072
L11487L
aL1417L
aL10285L
aL10579L
aL6841L
aL3967L
atp1073
Rp1074
sL1267L
g1
((lp1075
L8960L
aL10249L
aL2252L
aL2478L
aL12334L
aL4024L
aL11391L
atp1076
Rp1077
sL3364L
g1
((lp1078
L11809L
aL3683L
aL13060L
aL8872L
aL4971L
aL6990L
aL9307L
aL3519L
atp1079
Rp1080
sL1084L
g1
((lp1081
L12521L
aL5666L
aL8846L
aL2471L
atp1082
Rp1083
sL2843L
g1
((lp1084
L8544L
aL5666L
aL2594L
aL4167L
aL11979L
aL10801L
aL5656L
aL11098L
atp1085
Rp1086
sL2511L
g1
((lp1087
L8544L
aL3439L
aL7536L
aL11290L
aL7837L
aL7615L
atp1088
Rp1089
sL1214L
g1
((lp1090
L6147L
aL3337L
aL4330L
aL5806L
aL1050L
aL10654L
atp1091
Rp1092
sL271L
g1
((lp1093
L9284L
aL6729L
aL6251L
aL9837L
aL11151L
aL89L
atp1094
Rp1095
sL1473L
g1
((lp1096
L2886L
aL5505L
aL6542L
aL3239L
atp1097
Rp1098
sL1946L
g1
((lp1099
L1157L
aL9963L
aL402L
aL9045L
aL3831L
aL10622L
atp1100
Rp1101
sL2618L
g1
((lp1102
L10018L
aL11209L
aL4703L
aL7856L
aL8368L
aL5974L
aL440L
aL10687L
atp1103
Rp1104
sL578L
g1
((lp1105
L4483L
aL12701L
aL13039L
aL10288L
aL7570L
aL12949L
aL4126L
aL6938L
aL11805L
aL3614L
aL4479L
atp1106
Rp1107
sL380L
g1
((lp1108
L3272L
aL4973L
aL10258L
aL2612L
aL3541L
aL1820L
atp1109
Rp1110
sL1466L
g1
((lp1111
L6950L
aL746L
aL2571L
aL12334L
aL2478L
aL3950L
aL4024L
aL1278L
atp1112
Rp1113
sL253L
g1
((lp1114
L2917L
aL10635L
aL8269L
aL12497L
aL2289L
aL11959L
atp1115
Rp1116
sL3369L
g1
((lp1117
L712L
aL6251L
aL10288L
aL11057L
aL378L
aL10300L
atp1118
Rp1119
sL2196L
g1
((lp1120
L2252L
aL12222L
aL4024L
aL1629L
aL8094L
aL11391L
atp1121
Rp1122
sL858L
g1
((lp1123
L10594L
aL7106L
aL11746L
aL627L
aL9786L
aL1018L
atp1124
Rp1125
sL1850L
g1
((lp1126
L4001L
aL4738L
aL2306L
aL3543L
aL2999L
aL13169L
aL4020L
aL9015L
aL5212L
atp1127
Rp1128
sL3063L
g1
((lp1129
L7744L
aL11522L
aL2370L
aL2947L
aL9506L
aL7376L
aL13010L
aL467L
aL9652L
atp1130
Rp1131
sL1013L
g1
((lp1132
L2561L
aL2594L
aL10757L
aL12855L
aL4360L
aL4937L
aL2956L
aL4557L
aL4910L
aL5488L
aL5297L
aL277L
aL6967L
aL5305L
aL3033L
aL8189L
aL10622L
atp1133
Rp1134
sL2360L
g1
((lp1135
L4414L
aL9123L
aL10792L
aL271L
aL5008L
aL6554L
aL7582L
atp1136
Rp1137
sL1363L
g1
((lp1138
L1381L
aL6408L
aL137L
aL1491L
aL6102L
aL3832L
atp1139
Rp1140
sL2291L
g1
((lp1141
L993L
aL7970L
aL1795L
aL4388L
aL6182L
aL3111L
aL13030L
aL6441L
aL11462L
aL8941L
aL12145L
aL8978L
aL3350L
aL12922L
aL12155L
aL11549L
aL6047L
atp1142
Rp1143
sL287L
g1
((lp1144
L6786L
aL8104L
aL12617L
aL7342L
aL3123L
aL10008L
atp1145
Rp1146
sL2236L
g1
((lp1147
L9445L
aL3917L
aL10385L
aL4051L
aL9812L
aL2938L
aL3803L
atp1148
Rp1149
sL3131L
g1
((lp1150
L929L
aL11874L
aL12613L
aL8168L
aL5002L
aL12556L
aL9614L
aL10868L
aL12219L
aL4895L
atp1151
Rp1152
sL2631L
g1
((lp1153
L7328L
aL1187L
aL12676L
aL12323L
aL4070L
aL9513L
aL6410L
aL7084L
aL5072L
aL6801L
aL10262L
aL12218L
aL5086L
atp1154
Rp1155
sL3067L
g1
((lp1156
L10016L
aL11237L
aL7781L
aL4723L
aL8949L
aL1784L
atp1157
Rp1158
sL1715L
g1
((lp1159
L5088L
aL2178L
aL12776L
aL5968L
aL6390L
aL6648L
aL3455L
atp1160
Rp1161
sL1209L
g1
((lp1162
L4931L
aL8675L
aL7941L
aL11468L
aL4751L
aL11253L
aL8855L
aL9533L
atp1163
Rp1164
sL1672L
g1
((lp1165
L7496L
aL6160L
aL12598L
aL10070L
aL12442L
aL11998L
atp1166
Rp1167
sL1615L
g1
((lp1168
L384L
aL1186L
aL9002L
aL6169L
aL5818L
aL12414L
atp1169
Rp1170
sL2691L
g1
((lp1171
L10561L
aL5666L
aL10371L
aL3973L
aL5606L
aL4873L
aL12334L
aL2351L
aL11215L
aL7154L
aL4024L
atp1172
Rp1173
sL1479L
g1
((lp1174
L6721L
aL12857L
aL8803L
aL3939L
atp1175
Rp1176
sL2183L
g1
((lp1177
L5674L
aL2765L
aL6164L
aL8917L
aL6523L
aL3615L
atp1178
Rp1179
sL2431L
g1
((lp1180
L6251L
aL13039L
aL10288L
aL6938L
aL6397L
aL4126L
atp1181
Rp1182
sL2605L
g1
((lp1183
L10273L
aL1992L
aL9388L
aL5936L
aL7700L
aL6808L
atp1184
Rp1185
sL1595L
g1
((lp1186
L10603L
aL10348L
aL12013L
aL2094L
aL11258L
aL734L
atp1187
Rp1188
sL65L
g1
((lp1189
L3614L
aL4776L
aL13039L
aL10288L
aL7732L
aL11805L
aL4126L
atp1190
Rp1191
sL2611L
g1
((lp1192
L6397L
aL13039L
aL12949L
aL11801L
aL11805L
aL4126L
atp1193
Rp1194
sL2837L
g1
((lp1195
L11907L
aL8142L
aL1972L
aL3191L
aL4344L
aL474L
atp1196
Rp1197
sL1285L
g1
((lp1198
L9282L
aL8834L
aL1897L
aL12204L
aL11633L
aL8923L
atp1199
Rp1200
sL3294L
g1
((lp1201
L12456L
aL10249L
aL3917L
aL11445L
aL3034L
aL10492L
aL2653L
atp1202
Rp1203
sL1745L
g1
((lp1204
L11811L
aL12456L
aL9836L
aL3917L
aL4975L
aL8498L
aL11768L
aL2650L
atp1205
Rp1206
sL1488L
g1
((lp1207
L1632L
aL2599L
aL3208L
aL5806L
aL12334L
aL9117L
atp1208
Rp1209
sL1117L
g1
((lp1210
L12805L
aL4709L
aL10762L
aL2508L
aL12371L
aL6652L
aL7615L
atp1211
Rp1212
sL2255L
g1
((lp1213
L3011L
aL6731L
aL657L
aL7090L
aL4341L
aL9564L
atp1214
Rp1215
sL2055L
g1
((lp1216
L1000L
aL13039L
aL10288L
aL5845L
aL4126L
aL3614L
aL4479L
atp1217
Rp1218
sL1650L
g1
((lp1219
L5664L
aL9636L
aL10892L
aL1459L
aL6712L
aL11451L
atp1220
Rp1221
sL2774L
g1
((lp1222
L5731L
aL6950L
aL10249L
aL13228L
aL3917L
aL1613L
aL2938L
atp1223
Rp1224
sL685L
g1
((lp1225
L7716L
aL7592L
aL10988L
aL6576L
aL11229L
aL5042L
aL5810L
aL6899L
aL8058L
aL11099L
aL252L
aL1565L
atp1226
Rp1227
sL1638L
g1
((lp1228
L8545L
aL5283L
aL9802L
aL7501L
aL4886L
aL379L
atp1229
Rp1230
sL73L
g1
((lp1231
L7238L
aL3239L
aL12456L
aL3917L
aL10649L
aL7389L
atp1232
Rp1233
sL223L
g1
((lp1234
L3613L
aL10538L
aL10827L
aL317L
aL5885L
aL3807L
atp1235
Rp1236
sL2554L
g1
((lp1237
L8871L
aL9067L
aL9774L
aL11537L
aL12947L
aL5973L
atp1238
Rp1239
sL798L
g1
((lp1240
L6853L
aL10406L
aL9866L
aL4367L
aL13263L
aL4702L
atp1241
Rp1242
sL360L
g1
((lp1243
L9539L
aL10249L
aL9741L
aL12334L
aL4879L
aL12983L
aL4024L
atp1244
Rp1245
sL67L
g1
((lp1246
L7556L
aL11142L
aL10249L
aL12622L
aL12334L
aL11665L
aL9077L
aL12279L
aL4024L
aL1278L
atp1247
Rp1248
sL542L
g1
((lp1249
L6051L
aL10024L
aL242L
aL13108L
aL10870L
aL13148L
atp1250
Rp1251
sL1126L
g1
((lp1252
L12480L
aL4004L
aL11588L
aL4458L
aL6318L
aL9654L
aL3801L
aL954L
aL2300L
atp1253
Rp1254
sL1878L
g1
((lp1255
L9283L
aL8749L
aL8880L
aL9012L
aL3542L
aL5855L
atp1256
Rp1257
sL1295L
g1
((lp1258
L4193L
aL9669L
aL9574L
aL5512L
aL12078L
aL12984L
aL1311L
atp1259
Rp1260
sL1960L
g1
((lp1261
L12961L
aL8771L
aL1414L
aL10535L
aL4492L
aL6672L
aL3954L
aL6868L
aL10459L
aL12860L
aL1279L
atp1262
Rp1263
sL2818L
g1
((lp1264
L12832L
aL1576L
aL3276L
aL7536L
aL12944L
aL5493L
atp1265
Rp1266
sL3076L
g1
((lp1267
L11813L
aL456L
aL5513L
aL1194L
aL9276L
aL3998L
atp1268
Rp1269
sL3031L
g1
((lp1270
L7713L
aL10467L
aL9734L
aL13255L
aL10760L
aL9168L
aL4593L
aL339L
atp1271
Rp1272
sL24L
g1
((lp1273
L4931L
aL11468L
aL12348L
aL11253L
aL7100L
aL9533L
atp1274
Rp1275
sL3371L
g1
((lp1276
L4009L
aL9166L
aL12756L
aL8884L
aL1240L
aL13401L
atp1277
Rp1278
sL2043L
g1
((lp1279
L2400L
aL12353L
aL9450L
aL5644L
aL8818L
aL7035L
atp1280
Rp1281
sL1475L
g1
((lp1282
L12813L
aL11666L
aL13333L
aL6940L
aL671L
aL5922L
aL9893L
aL6448L
aL3766L
aL7096L
aL11859L
aL11860L
aL3285L
aL7769L
aL7520L
aL5217L
aL2914L
aL4328L
aL7668L
aL3189L
aL11000L
aL7545L
atp1283
Rp1284
sL2046L
g1
((lp1285
L5742L
aL2357L
aL3383L
aL13273L
aL10235L
aL6173L
atp1286
Rp1287
sL2479L
g1
((lp1288
L256L
aL9889L
aL11044L
aL2086L
aL3398L
aL116L
aL12213L
aL12855L
aL10072L
atp1289
Rp1290
sL846L
g1
((lp1291
L4096L
aL5590L
aL11287L
aL5657L
aL11325L
aL4471L
atp1292
Rp1293
sL1648L
g1
((lp1294
L3744L
aL8459L
aL395L
aL11282L
aL6936L
aL7327L
atp1295
Rp1296
sL3315L
g1
((lp1297
L321L
aL2434L
aL1763L
aL708L
aL10728L
aL5202L
aL9815L
aL3739L
atp1298
Rp1299
sL45L
g1
((lp1300
L7809L
aL3974L
aL41L
aL5354L
aL939L
aL916L
aL9659L
aL8030L
atp1301
Rp1302
sL3207L
g1
((lp1303
L9696L
aL6407L
aL3790L
aL1139L
aL11189L
aL535L
atp1304
Rp1305
sL687L
g1
((lp1306
L3360L
aL4834L
aL4708L
aL3535L
aL9616L
aL9013L
atp1307
Rp1308
sL661L
g1
((lp1309
L12897L
aL4615L
aL11945L
aL9420L
aL4081L
atp1310
Rp1311
sL920L
g1
((lp1312
L2209L
aL10499L
aL11463L
aL4142L
aL8185L
aL5788L
atp1313
Rp1314
sL3278L
g1
((lp1315
L2252L
aL12334L
aL2478L
aL4024L
aL1278L
aL11391L
atp1316
Rp1317
sL3172L
g1
((lp1318
L904L
aL7635L
aL2936L
aL1783L
atp1319
Rp1320
sL1636L
g1
((lp1321
L10914L
aL520L
aL5160L
aL4338L
aL8506L
aL8731L
aL3005L
atp1322
Rp1323
sL955L
g1
((lp1324
L417L
aL3973L
aL4873L
aL12334L
aL4367L
aL11215L
aL7154L
aL4024L
aL10777L
atp1325
Rp1326
sL1427L
g1
((lp1327
L1412L
aL7401L
aL8018L
aL1047L
aL13175L
aL9274L
atp1328
Rp1329
sL1061L
g1
((lp1330
L12929L
aL10114L
aL8134L
aL6L
aL8486L
aL4842L
aL3605L
aL2392L
atp1331
Rp1332
sL346L
g1
((lp1333
L9287L
aL13039L
aL7570L
aL12949L
aL5845L
aL12701L
atp1334
Rp1335
sL509L
g1
((lp1336
L13153L
aL10635L
aL7660L
aL11770L
aL1114L
aL11355L
aL10271L
atp1337
Rp1338
sL1542L
g1
((lp1339
L11520L
aL9064L
aL7373L
aL5709L
aL3728L
aL4468L
aL5271L
atp1340
Rp1341
sL2117L
g1
((lp1342
L291L
aL4300L
aL1599L
aL6132L
aL1271L
aL1215L
atp1343
Rp1344
sL1452L
g1
((lp1345
L8931L
aL6950L
aL2252L
aL6637L
aL2478L
aL12334L
aL12146L
aL4024L
aL6232L
aL1278L
atp1346
Rp1347
sL153L
g1
((lp1348
L12805L
aL8519L
aL6825L
aL7697L
aL9714L
aL10654L
atp1349
Rp1350
sL1287L
g1
((lp1351
L768L
aL7361L
aL6306L
aL709L
aL7078L
aL8296L
aL6733L
aL4856L
aL11700L
aL9365L
aL1431L
aL1432L
aL11578L
aL6716L
aL6238L
atp1352
Rp1353
sL912L
g1
((lp1354
L6816L
aL9L
aL3341L
aL4144L
aL10865L
aL8276L
aL8758L
atp1355
Rp1356
sL2586L
g1
((lp1357
L2252L
aL3950L
aL12334L
aL2478L
aL4024L
aL1278L
atp1358
Rp1359
sL2760L
g1
((lp1360
L3360L
aL4834L
aL7044L
aL4708L
aL3535L
aL13039L
atp1361
Rp1362
sL931L
g1
((lp1363
L12701L
aL13039L
aL7570L
aL11801L
aL11805L
aL413L
atp1364
Rp1365
sL154L
g1
((lp1366
L8646L
aL8327L
aL1096L
aL9287L
aL6251L
aL12331L
aL13039L
aL7732L
aL11508L
aL10938L
aL4126L
aL4479L
atp1367
Rp1368
sL1519L
g1
((lp1369
L4224L
aL6017L
aL9281L
aL13255L
aL10760L
aL715L
atp1370
Rp1371
sL467L
g1
((lp1372
L10048L
aL12103L
aL13263L
aL2139L
aL8957L
aL10815L
atp1373
Rp1374
sL1260L
g1
((lp1375
L7169L
aL4515L
aL11908L
aL3603L
aL1592L
aL7580L
atp1376
Rp1377
sL402L
g1
((lp1378
L1665L
aL5584L
aL9040L
aL9938L
aL10802L
aL6781L
atp1379
Rp1380
sL2460L
g1
((lp1381
L8128L
aL1703L
aL12743L
aL10697L
aL11030L
aL6843L
aL1566L
atp1382
Rp1383
sL902L
g1
((lp1384
L6402L
aL11974L
aL806L
aL12271L
aL1200L
aL7133L
aL1562L
aL2586L
aL4733L
atp1385
Rp1386
sL762L
g1
((lp1387
L8747L
aL8303L
aL4658L
aL1013L
aL5366L
aL12858L
aL7260L
aL6174L
atp1388
Rp1389
sL881L
g1
((lp1390
L9669L
aL10167L
aL9684L
aL6135L
aL12984L
aL8570L
atp1391
Rp1392
sL3259L
g1
((lp1393
L3146L
aL7949L
aL11952L
aL3508L
aL6742L
aL4476L
atp1394
Rp1395
sL755L
g1
((lp1396
L7267L
aL2252L
aL749L
aL11391L
atp1397
Rp1398
sL293L
g1
((lp1399
L2138L
aL264L
aL7561L
aL2538L
aL214L
aL1434L
atp1400
Rp1401
sL1979L
g1
((lp1402
L7494L
aL12334L
aL7987L
aL11189L
aL12476L
aL1278L
atp1403
Rp1404
sL916L
g1
((lp1405
L6816L
aL8675L
aL3621L
aL11468L
aL10317L
aL11253L
aL8758L
atp1406
Rp1407
sL1069L
g1
((lp1408
L6496L
aL7366L
aL7665L
aL12404L
aL9593L
aL477L
atp1409
Rp1410
sL1152L
g1
((lp1411
L6950L
aL778L
aL2252L
aL10958L
aL4024L
aL2459L
atp1412
Rp1413
sL1369L
g1
((lp1414
L7077L
aL3851L
aL2895L
aL4079L
aL5393L
aL3091L
aL13278L
atp1415
Rp1416
sL3150L
g1
((lp1417
L12265L
aL7436L
aL7570L
aL5845L
aL11801L
aL11805L
atp1418
Rp1419
sL1184L
g1
((lp1420
L5099L
aL2924L
aL7565L
aL594L
aL4051L
aL11642L
aL10750L
atp1421
Rp1422
sL2426L
g1
((lp1423
L11395L
aL12903L
aL10825L
aL1659L
aL11952L
aL7323L
atp1424
Rp1425
sL310L
g1
((lp1426
L1603L
aL12133L
aL3975L
aL1454L
aL1687L
aL6745L
aL3770L
aL1886L
atp1427
Rp1428
sL1288L
g1
((lp1429
L192L
aL3360L
aL5838L
aL3535L
aL5268L
aL3156L
atp1430
Rp1431
sL1902L
g1
((lp1432
L3393L
aL2084L
aL3208L
aL12140L
aL5806L
aL12334L
aL5201L
aL12852L
aL1278L
atp1433
Rp1434
sL2921L
g1
((lp1435
L1255L
aL4367L
aL5493L
aL185L
aL7837L
atp1436
Rp1437
sL2026L
g1
((lp1438
L6251L
aL12336L
aL564L
aL4541L
aL4126L
aL10303L
atp1439
Rp1440
sL295L
g1
((lp1441
L417L
aL13157L
aL10891L
aL12334L
aL8846L
aL7984L
aL4024L
aL2360L
aL10777L
atp1442
Rp1443
sL3143L
g1
((lp1444
L8395L
aL12397L
aL1873L
aL276L
aL277L
aL308L
atp1445
Rp1446
sL860L
g1
((lp1447
L3614L
aL9287L
aL13039L
aL10288L
aL12949L
aL12701L
aL4126L
atp1448
Rp1449
sL1973L
g1
((lp1450
L11780L
aL3973L
aL13254L
aL1736L
aL12140L
aL11215L
aL7154L
aL4216L
atp1451
Rp1452
sL2174L
g1
((lp1453
L11781L
aL9993L
aL5546L
aL4330L
aL2479L
aL2897L
aL3478L
aL1915L
atp1454
Rp1455
sL1010L
g1
((lp1456
L8320L
aL9282L
aL2667L
aL239L
aL503L
aL10620L
atp1457
Rp1458
sL423L
g1
((lp1459
L5378L
aL4457L
aL9996L
aL10764L
aL8729L
aL8847L
aL8125L
aL3409L
aL5873L
aL13012L
aL12089L
aL7869L
atp1460
Rp1461
sL3174L
g1
((lp1462
L13411L
aL8580L
aL11978L
aL13391L
aL13214L
aL2164L
aL9530L
aL3166L
atp1463
Rp1464
sL613L
g1
((lp1465
L5666L
aL5955L
aL3509L
aL12759L
aL5498L
aL11615L
atp1466
Rp1467
sL576L
g1
((lp1468
L11233L
aL8930L
aL12231L
aL3571L
aL12855L
aL5018L
aL12663L
atp1469
Rp1470
sL2388L
g1
((lp1471
L9157L
aL8902L
aL5770L
aL12139L
aL3031L
aL4476L
atp1472
Rp1473
sL1376L
g1
((lp1474
L4672L
aL965L
aL8970L
aL6099L
aL12725L
aL5947L
atp1475
Rp1476
sL1822L
g1
((lp1477
L4483L
aL6251L
aL13039L
aL7570L
aL4126L
aL6397L
aL12701L
atp1478
Rp1479
sL1203L
g1
((lp1480
L6914L
aL12741L
aL1931L
aL1651L
aL6006L
aL7032L
aL3674L
aL6879L
atp1481
Rp1482
sL1714L
g1
((lp1483
L10950L
aL10470L
aL6025L
aL6539L
aL7243L
aL468L
aL2719L
atp1484
Rp1485
sL3126L
g1
((lp1486
L6914L
aL835L
aL5540L
aL13346L
aL9060L
aL2087L
aL10348L
aL8526L
aL8655L
aL2800L
aL8784L
aL7439L
atp1487
Rp1488
sL259L
g1
((lp1489
L4198L
aL2727L
aL1288L
aL10345L
aL12334L
aL13366L
aL4024L
aL13240L
aL5145L
aL1278L
atp1490
Rp1491
sL1436L
g1
((lp1492
L8544L
aL2181L
aL9832L
aL11120L
aL12944L
aL217L
atp1493
Rp1494
sL1289L
g1
((lp1495
L8834L
aL6950L
aL2252L
aL12334L
aL2478L
aL7795L
aL10902L
aL4024L
aL6782L
atp1496
Rp1497
sL870L
g1
((lp1498
L12257L
aL11045L
aL3755L
aL2861L
aL2451L
atp1499
Rp1500
sL2821L
g1
((lp1501
L6243L
aL11240L
aL1519L
aL12816L
aL6102L
aL11928L
atp1502
Rp1503
sL2556L
g1
((lp1504
L8931L
aL2276L
aL7989L
aL12023L
aL7416L
aL12222L
atp1505
Rp1506
sL2357L
g1
((lp1507
L3810L
aL6755L
aL10372L
aL1060L
aL165L
aL1799L
aL2376L
aL3307L
aL8492L
aL3982L
aL13230L
aL4339L
aL10808L
aL58L
aL12670L
aL6911L
atp1508
Rp1509
sL407L
g1
((lp1510
L13039L
aL10288L
aL12949L
aL4126L
aL3614L
aL4479L
atp1511
Rp1512
sL1964L
g1
((lp1513
L5571L
aL13039L
aL7570L
aL7732L
aL12701L
aL4126L
atp1514
Rp1515
sL2249L
g1
((lp1516
L10241L
aL7777L
aL8705L
aL10895L
aL6544L
aL6939L
aL3743L
atp1517
Rp1518
sL2135L
g1
((lp1519
L13039L
aL10288L
aL12949L
aL4126L
aL11801L
aL3614L
atp1520
Rp1521
sL140L
g1
((lp1522
L9193L
aL8459L
aL12334L
aL6129L
aL4024L
aL5533L
atp1523
Rp1524
sL3100L
g1
((lp1525
L11805L
aL4483L
aL9287L
aL13039L
aL10288L
aL656L
aL7570L
aL12949L
aL12701L
aL4126L
atp1526
Rp1527
sL1032L
g1
((lp1528
L8236L
aL2833L
aL10451L
aL9078L
aL2361L
aL2301L
atp1529
Rp1530
sL2823L
g1
((lp1531
L6251L
aL7436L
aL13039L
aL11801L
aL413L
aL12701L
atp1532
Rp1533
sL2185L
g1
((lp1534
L2794L
aL8459L
aL12334L
aL4024L
aL5112L
aL1278L
atp1535
Rp1536
sL2521L
g1
((lp1537
L13039L
aL10288L
aL7570L
aL12949L
aL6397L
aL12701L
atp1538
Rp1539
sL2346L
g1
((lp1540
L3500L
aL8017L
aL10194L
aL5745L
aL8983L
aL3518L
atp1541
Rp1542
sL3L
g1
((lp1543
L13416L
aL1705L
aL9838L
aL3900L
aL1278L
atp1544
Rp1545
sL1200L
g1
((lp1546
L2594L
aL12291L
aL9528L
aL1765L
aL6663L
aL1048L
aL3098L
atp1547
Rp1548
sL2713L
g1
((lp1549
L1440L
aL8289L
aL6531L
aL13163L
aL12724L
atp1550
Rp1551
sL1866L
g1
((lp1552
L8544L
aL8260L
aL5737L
aL9161L
aL12777L
aL3408L
aL6289L
aL2909L
atp1553
Rp1554
sL777L
g1
((lp1555
L12001L
aL8714L
aL1041L
aL2354L
aL1658L
aL9531L
atp1556
Rp1557
sL1017L
g1
((lp1558
L4226L
aL4419L
aL6154L
aL4249L
aL13402L
aL10875L
atp1559
Rp1560
sL3250L
g1
((lp1561
L5761L
aL7810L
aL4099L
aL2949L
aL9084L
aL5256L
aL9099L
aL3097L
aL10521L
aL1948L
aL4382L
aL5920L
aL10146L
aL8739L
aL12711L
aL10152L
aL3498L
aL11819L
aL6188L
aL4396L
aL10158L
aL5296L
aL5682L
aL3252L
aL6197L
aL9270L
aL3636L
aL3645L
aL5182L
aL9406L
aL6718L
aL5059L
aL7364L
aL3781L
aL13256L
aL7885L
aL1358L
aL10190L
aL1621L
aL6104L
aL9816L
aL8539L
aL9563L
aL221L
aL617L
aL11242L
aL4978L
aL2809L
aL3068L
atp1562
Rp1563
sL571L
g1
((lp1564
L4931L
aL3621L
aL13358L
aL8755L
aL8628L
aL11253L
atp1565
Rp1566
sL3038L
g1
((lp1567
L13187L
aL7310L
aL7919L
aL10256L
aL3031L
aL4694L
aL4407L
atp1568
Rp1569
sL2570L
g1
((lp1570
L2977L
aL1283L
aL42L
aL12307L
aL3348L
aL6526L
atp1571
Rp1572
sL3277L
g1
((lp1573
L680L
aL13358L
aL8755L
aL11253L
aL8215L
aL12348L
atp1574
Rp1575
sL57L
g1
((lp1576
L4260L
aL3852L
aL12334L
aL4024L
aL2680L
aL5403L
atp1577
Rp1578
sL1083L
g1
((lp1579
L9635L
aL8679L
aL1291L
aL9516L
aL1103L
aL12250L
atp1580
Rp1581
sL1247L
g1
((lp1582
L5632L
aL3074L
aL12549L
aL9484L
aL5136L
aL280L
aL2200L
aL3742L
aL2223L
aL5809L
aL6969L
aL4292L
aL3782L
aL6984L
aL10185L
aL10828L
aL12495L
aL7384L
aL11486L
aL8799L
aL4201L
aL7276L
aL8817L
aL10994L
aL2165L
aL1527L
aL11003L
atp1583
Rp1584
sL1953L
g1
((lp1585
L7265L
aL4452L
aL4615L
aL12903L
aL12918L
aL3678L
atp1586
Rp1587
sL1339L
g1
((lp1588
L2368L
aL640L
aL13026L
aL2048L
aL9669L
aL11397L
aL466L
atp1589
Rp1590
sL327L
g1
((lp1591
L2240L
aL3887L
aL2420L
aL12245L
aL2555L
aL7546L
aL5211L
atp1592
Rp1593
sL1737L
g1
((lp1594
L516L
aL1924L
aL5444L
aL8204L
aL1837L
aL8210L
aL3028L
aL248L
aL7930L
aL8733L
atp1595
Rp1596
sL1590L
g1
((lp1597
L10688L
aL130L
aL1320L
aL10512L
aL12850L
aL3795L
aL5652L
aL4729L
aL7770L
atp1598
Rp1599
sL3380L
g1
((lp1600
L7877L
aL3530L
aL8298L
aL2603L
aL6807L
aL6074L
aL4797L
aL11423L
atp1601
Rp1602
sL1445L
g1
((lp1603
L1417L
aL7871L
aL12754L
aL1715L
aL10360L
aL10879L
atp1604
Rp1605
sL1901L
g1
((lp1606
L8834L
aL10249L
aL4777L
aL9994L
aL983L
aL11391L
atp1607
Rp1608
sL1616L
g1
((lp1609
L3618L
aL3575L
aL1382L
aL9871L
aL21L
aL3479L
atp1610
Rp1611
sL392L
g1
((lp1612
L8295L
aL2478L
aL12334L
aL3443L
aL9782L
aL1278L
aL11391L
atp1613
Rp1614
sL992L
g1
((lp1615
L12160L
aL13221L
aL10058L
aL3185L
aL3188L
aL5044L
atp1616
Rp1617
sL990L
g1
((lp1618
L7713L
aL10594L
aL9281L
aL12048L
aL3577L
aL9786L
atp1619
Rp1620
sL1354L
g1
((lp1621
L10797L
aL5070L
aL4626L
aL4722L
aL6674L
aL7898L
atp1622
Rp1623
sL2723L
g1
((lp1624
L2401L
aL13318L
aL9830L
aL3846L
aL8176L
aL9489L
aL12631L
aL8378L
atp1625
Rp1626
sL1457L
g1
((lp1627
L10820L
aL12459L
aL3917L
aL5491L
aL595L
aL4793L
atp1628
Rp1629
sL1221L
g1
((lp1630
L10497L
aL5479L
aL10195L
aL4631L
aL7549L
atp1631
Rp1632
sL1649L
g1
((lp1633
L8992L
aL12866L
aL4260L
aL10249L
aL12204L
aL11538L
aL244L
aL5524L
aL2459L
aL1660L
atp1634
Rp1635
sL2563L
g1
((lp1636
L7207L
aL3247L
aL10197L
aL6391L
aL2074L
atp1637
Rp1638
sL1076L
g1
((lp1639
L11360L
aL5347L
aL18L
aL6455L
aL1112L
aL6719L
atp1640
Rp1641
sL324L
g1
((lp1642
L5440L
aL1408L
aL5223L
aL1033L
aL7274L
aL9419L
atp1643
Rp1644
sL2294L
g1
((lp1645
L7651L
aL103L
aL10215L
aL3559L
aL12458L
aL5707L
aL9100L
aL9710L
aL2222L
aL8206L
aL529L
aL9103L
atp1646
Rp1647
sL2508L
g1
((lp1648
L288L
aL289L
aL13220L
aL7657L
aL11981L
aL11631L
aL13167L
aL13114L
aL445L
aL9278L
atp1649
Rp1650
sL2468L
g1
((lp1651
L9280L
aL4168L
aL2995L
aL12852L
aL6296L
aL185L
atp1652
Rp1653
sL3116L
g1
((lp1654
L9210L
aL5636L
aL741L
aL6374L
aL12649L
aL2059L
aL11244L
aL6063L
aL7761L
aL11089L
aL8435L
aL8883L
aL1874L
aL1685L
aL5213L
aL10006L
aL2554L
aL5020L
aL8221L
atp1655
Rp1656
sL2261L
g1
((lp1657
L6592L
aL6273L
aL9065L
aL12970L
aL6069L
aL6937L
atp1658
Rp1659
sL841L
g1
((lp1660
L6950L
aL2252L
aL2478L
aL12334L
aL12401L
aL4024L
atp1661
Rp1662
sL928L
g1
((lp1663
L1443L
aL9287L
aL6251L
aL13039L
aL10288L
aL6397L
aL4126L
atp1664
Rp1665
sL3353L
g1
((lp1666
L6816L
aL8484L
aL7365L
aL6098L
aL8758L
aL12348L
atp1667
Rp1668
sL211L
g1
((lp1669
L8896L
aL3019L
aL12240L
aL9586L
aL11475L
aL3577L
aL669L
aL2687L
atp1670
Rp1671
sL366L
g1
((lp1672
L9287L
aL204L
aL2678L
aL11542L
atp1673
Rp1674
sL2178L
g1
((lp1675
L8257L
aL3973L
aL4873L
aL7154L
aL5076L
aL7896L
atp1676
Rp1677
sL1348L
g1
((lp1678
L9669L
aL3335L
aL3918L
aL6135L
aL10167L
aL2655L
atp1679
Rp1680
sL3209L
g1
((lp1681
L13039L
aL10288L
aL5845L
aL4126L
aL11801L
aL11805L
aL3614L
atp1682
Rp1683
sL1429L
g1
((lp1684
L9603L
aL9224L
aL3273L
aL3242L
aL13103L
aL5615L
aL7131L
atp1685
Rp1686
sL2137L
g1
((lp1687
L448L
aL11527L
aL4909L
aL594L
aL9107L
aL2780L
atp1688
Rp1689
sL1284L
g1
((lp1690
L4260L
aL5675L
aL7766L
aL10489L
aL6142L
atp1691
Rp1692
sL2746L
g1
((lp1693
L4224L
aL9281L
aL6626L
aL8520L
aL217L
aL7806L
atp1694
Rp1695
sL3240L
g1
((lp1696
L11805L
aL4776L
aL13039L
aL7570L
aL6397L
aL4126L
atp1697
Rp1698
sL84L
g1
((lp1699
L7777L
aL9640L
aL9162L
aL13035L
aL6990L
aL10895L
aL1361L
aL12342L
aL318L
atp1700
Rp1701
sL421L
g1
((lp1702
L8321L
aL1636L
aL7048L
aL12681L
aL4846L
aL5686L
aL8248L
aL9785L
aL13247L
atp1703
Rp1704
sL1685L
g1
((lp1705
L5800L
aL11833L
aL48L
aL8855L
aL8760L
aL6873L
aL13242L
aL2559L
atp1706
Rp1707
sL1148L
g1
((lp1708
L9287L
aL13264L
aL8023L
aL11801L
aL6106L
aL413L
atp1709
Rp1710
sL1481L
g1
((lp1711
L8994L
aL6986L
aL8813L
aL8208L
aL4189L
aL3870L
atp1712
Rp1713
sL1599L
g1
((lp1714
L2252L
aL2478L
aL6609L
aL7282L
aL8979L
aL12049L
atp1715
Rp1716
sL2849L
g1
((lp1717
L12701L
aL171L
aL13039L
aL7570L
aL8023L
aL6397L
aL413L
atp1718
Rp1719
sL415L
g1
((lp1720
L3614L
aL6251L
aL13039L
aL7732L
aL12949L
aL11805L
aL4126L
atp1721
Rp1722
sL1180L
g1
((lp1723
L11936L
aL2177L
aL6242L
aL1537L
aL4229L
aL1498L
atp1724
Rp1725
sL2733L
g1
((lp1726
L994L
aL11177L
aL10735L
aL7159L
aL8280L
aL12601L
aL12671L
atp1727
Rp1728
sL2528L
g1
((lp1729
L2210L
aL4298L
aL4751L
aL11253L
aL8758L
aL8215L
aL4988L
aL2559L
atp1730
Rp1731
sL3386L
g1
((lp1732
L2214L
aL3501L
aL7953L
aL6164L
aL8917L
aL5493L
atp1733
Rp1734
sL2926L
g1
((lp1735
L12288L
aL7459L
aL5418L
aL3917L
aL5850L
aL7999L
atp1736
Rp1737
sL2602L
g1
((lp1738
L8161L
aL2594L
aL1765L
aL7467L
aL3158L
aL377L
atp1739
Rp1740
sL2931L
g1
((lp1741
L5645L
aL1167L
aL8982L
aL2071L
aL2337L
aL1954L
aL4901L
aL3749L
aL934L
aL5672L
aL45L
aL7862L
aL4150L
aL6970L
aL11205L
aL13135L
aL12628L
aL724L
aL4447L
aL8419L
aL9063L
aL6376L
aL11759L
aL4082L
aL2934L
atp1742
Rp1743
sL371L
g1
((lp1744
L8714L
aL11215L
aL6865L
aL1141L
aL10425L
aL1658L
atp1745
Rp1746
sL2524L
g1
((lp1747
L7971L
aL9482L
aL1718L
aL9336L
aL11227L
aL6780L
atp1748
Rp1749
sL731L
g1
((lp1750
L1477L
aL1094L
aL6704L
aL10163L
aL4024L
aL4958L
atp1751
Rp1752
sL784L
g1
((lp1753
L6276L
aL12078L
aL6319L
aL466L
aL11191L
aL3740L
aL2814L
atp1754
Rp1755
sL2445L
g1
((lp1756
L9320L
aL7497L
aL6100L
aL2329L
aL475L
aL12796L
atp1757
Rp1758
sL2134L
g1
((lp1759
L12800L
aL13039L
aL656L
aL12949L
aL11801L
aL413L
atp1760
Rp1761
sL1784L
g1
((lp1762
L7873L
aL10246L
aL6183L
aL10217L
aL12843L
aL1164L
aL9494L
atp1763
Rp1764
sL1527L
g1
((lp1765
L9056L
aL6529L
aL4064L
aL3654L
aL4682L
aL877L
atp1766
Rp1767
sL568L
g1
((lp1768
L5572L
aL7111L
aL10216L
aL5047L
aL4953L
aL4475L
aL1567L
atp1769
Rp1770
sL652L
g1
((lp1771
L6914L
aL1931L
aL12013L
aL12501L
aL5626L
aL11261L
aL6879L
atp1772
Rp1773
sL2034L
g1
((lp1774
L2820L
aL4837L
aL11942L
aL1222L
aL10962L
aL12506L
atp1775
Rp1776
sL169L
g1
((lp1777
L3618L
aL2252L
aL2478L
aL12334L
aL4024L
aL11391L
atp1778
Rp1779
sL2792L
g1
((lp1780
L6788L
aL9030L
aL11831L
aL6681L
aL9597L
aL6013L
atp1781
Rp1782
sL1545L
g1
((lp1783
L6728L
aL6248L
aL9202L
aL13238L
aL10619L
aL13117L
atp1784
Rp1785
sL926L
g1
((lp1786
L3304L
aL7436L
aL13039L
aL7570L
aL12701L
aL3614L
atp1787
Rp1788
sL1954L
g1
((lp1789
L1732L
aL8713L
aL11502L
aL3571L
aL12855L
aL1081L
atp1790
Rp1791
sL1231L
g1
((lp1792
L1856L
aL3335L
aL12327L
aL3887L
aL3792L
aL10068L
aL6135L
aL9279L
aL9535L
atp1793
Rp1794
sL627L
g1
((lp1795
L290L
aL12202L
aL6031L
aL4625L
aL184L
aL5467L
aL5277L
atp1796
Rp1797
sL419L
g1
((lp1798
L11621L
aL9189L
aL3061L
aL1274L
aL3164L
aL381L
atp1799
Rp1800
sL2882L
g1
((lp1801
L3973L
aL4873L
aL8846L
aL11215L
aL7154L
aL4216L
atp1802
Rp1803
sL508L
g1
((lp1804
L11805L
aL13039L
aL6608L
aL12949L
aL413L
aL3614L
atp1805
Rp1806
sL3234L
g1
((lp1807
L12674L
aL2594L
aL2804L
aL12502L
aL5403L
aL5533L
atp1808
Rp1809
sL2751L
g1
((lp1810
L13039L
aL10288L
aL7570L
aL6397L
aL12701L
aL4126L
atp1811
Rp1812
sL2170L
g1
((lp1813
L13184L
aL7947L
aL10896L
aL1040L
aL4887L
aL12440L
aL38L
aL12203L
aL9272L
aL10051L
aL451L
aL11845L
aL5962L
aL10060L
aL10444L
aL8654L
aL10833L
aL213L
aL2648L
aL11224L
aL13405L
aL4321L
aL1133L
aL3693L
aL2168L
atp1814
Rp1815
sL2221L
g1
((lp1816
L12832L
aL7590L
aL3276L
aL12334L
aL9488L
aL12951L
atp1817
Rp1818
sL2340L
g1
((lp1819
L8961L
aL1131L
aL3116L
aL5391L
aL5618L
aL3421L
aL1054L
atp1820
Rp1821
sL1463L
g1
((lp1822
L12035L
aL2406L
aL12534L
aL4503L
aL12925L
aL6302L
atp1823
Rp1824
sL485L
g1
((lp1825
L9477L
aL9287L
aL13039L
aL10288L
aL12949L
aL413L
aL4126L
atp1826
Rp1827
sL2390L
g1
((lp1828
L6243L
aL9773L
aL7279L
aL1424L
aL3634L
aL11928L
atp1829
Rp1830
sL127L
g1
((lp1831
L3236L
aL5796L
aL11249L
aL980L
aL10906L
aL2331L
atp1832
Rp1833
sL950L
g1
((lp1834
L4866L
aL11875L
aL4299L
aL8081L
aL10137L
aL797L
atp1835
Rp1836
sL2006L
g1
((lp1837
L13263L
aL8112L
aL5493L
aL8917L
aL12950L
aL3679L
atp1838
Rp1839
sL3342L
g1
((lp1840
L12515L
aL4612L
aL8869L
aL4007L
aL3015L
aL105L
aL4394L
aL9835L
aL12202L
aL12248L
aL2110L
aL10719L
atp1841
Rp1842
sL399L
g1
((lp1843
L9536L
aL11014L
aL8966L
aL7767L
aL12341L
aL7671L
atp1844
Rp1845
sL483L
g1
((lp1846
L9669L
aL8299L
aL6319L
aL11191L
aL9623L
aL8569L
aL4543L
atp1847
Rp1848
sL1254L
g1
((lp1849
L323L
aL12809L
aL11595L
aL2252L
aL4024L
aL11391L
atp1850
Rp1851
sL1704L
g1
((lp1852
L2817L
aL6319L
aL11191L
aL12984L
aL8188L
aL4543L
atp1853
Rp1854
sL2061L
g1
((lp1855
L5895L
aL1885L
aL8495L
aL3696L
aL13207L
aL8914L
aL4371L
aL12855L
aL11645L
atp1856
Rp1857
sL674L
g1
((lp1858
L3968L
aL1121L
aL807L
aL5139L
aL8980L
aL8759L
aL11647L
atp1859
Rp1860
sL397L
g1
((lp1861
L642L
aL6251L
aL10288L
aL11032L
aL6938L
aL4126L
atp1862
Rp1863
sL1864L
g1
((lp1864
L11306L
aL10379L
aL2252L
aL1101L
aL4024L
aL11391L
atp1865
Rp1866
sL2901L
g1
((lp1867
L9504L
aL10283L
aL9299L
aL8789L
aL7926L
aL4223L
atp1868
Rp1869
sL1062L
g1
((lp1870
L2219L
aL10766L
aL9840L
aL11568L
aL2009L
aL3035L
atp1871
Rp1872
sL516L
g1
((lp1873
L5350L
aL2351L
aL5840L
aL12564L
aL13305L
aL3611L
atp1874
Rp1875
sL2072L
g1
((lp1876
L5666L
aL4167L
aL4873L
aL12334L
aL8846L
aL5493L
atp1877
Rp1878
sL2782L
g1
((lp1879
L10829L
aL4432L
aL6928L
aL3413L
aL9399L
aL8511L
atp1880
Rp1881
sL1271L
g1
((lp1882
L4193L
aL6882L
aL9669L
aL5512L
aL12078L
aL8562L
atp1883
Rp1884
sL3057L
g1
((lp1885
L11904L
aL8841L
aL3886L
aL3697L
aL6580L
aL6807L
aL311L
atp1886
Rp1887
sL2016L
g1
((lp1888
L11021L
aL13363L
aL4437L
aL86L
aL11191L
aL5562L
atp1889
Rp1890
sL3118L
g1
((lp1891
L3208L
aL8714L
aL5806L
aL12334L
aL10641L
aL3509L
aL1278L
atp1892
Rp1893
sL1763L
g1
((lp1894
L3208L
aL12334L
aL7439L
aL5806L
aL5493L
aL1050L
aL1278L
atp1895
Rp1896
sL3107L
g1
((lp1897
L9477L
aL9287L
aL10378L
aL13039L
aL11801L
aL413L
aL3614L
aL4479L
atp1898
Rp1899
sL1891L
g1
((lp1900
L6950L
aL717L
aL3917L
aL5200L
aL4370L
aL13339L
atp1901
Rp1902
sL2219L
g1
((lp1903
L11913L
aL12334L
aL6704L
aL12279L
aL4024L
aL12666L
atp1904
Rp1905
sL3080L
g1
((lp1906
L2880L
aL8198L
aL7654L
aL9779L
aL3095L
aL8474L
aL4604L
atp1907
Rp1908
sL471L
g1
((lp1909
L2092L
aL10611L
aL6549L
aL7417L
aL11197L
aL11550L
atp1910
Rp1911
sL1579L
g1
((lp1912
L7777L
aL8705L
aL1699L
aL6544L
aL3743L
aL4018L
aL12786L
aL5983L
atp1913
Rp1914
sL1602L
g1
((lp1915
L7138L
aL4037L
aL3367L
aL3025L
aL11062L
aL411L
atp1916
Rp1917
sL1856L
g1
((lp1918
L5806L
aL5616L
aL1041L
aL3509L
aL1974L
aL11225L
atp1919
Rp1920
sL2121L
g1
((lp1921
L1952L
aL5385L
aL11306L
aL2025L
aL2252L
aL9836L
aL12334L
aL5870L
aL2478L
aL4024L
aL4505L
aL891L
atp1922
Rp1923
sL2226L
g1
((lp1924
L1952L
aL7241L
aL2478L
aL12334L
aL13203L
aL4024L
atp1925
Rp1926
sL954L
g1
((lp1927
L4024L
aL7825L
aL2835L
aL2252L
atp1928
Rp1929
sL2262L
g1
((lp1930
L1L
aL3566L
aL11535L
aL13176L
aL5176L
aL12825L
aL4157L
atp1931
Rp1932
sL2958L
g1
((lp1933
L13313L
aL10594L
aL7107L
aL1576L
aL8107L
aL8496L
aL12048L
aL6164L
aL2998L
aL8727L
aL10077L
aL6878L
atp1934
Rp1935
sL807L
g1
((lp1936
L10883L
aL5578L
aL8586L
aL12527L
aL12913L
aL2646L
aL9627L
atp1937
Rp1938
sL2712L
g1
((lp1939
L11048L
aL10129L
aL7218L
aL11580L
aL6332L
aL11390L
atp1940
Rp1941
sL2369L
g1
((lp1942
L12701L
aL6830L
aL13039L
aL7570L
aL11805L
aL3614L
atp1943
Rp1944
sL1104L
g1
((lp1945
L11780L
aL1444L
aL6520L
aL4873L
aL11882L
aL6635L
aL12334L
aL11215L
aL11022L
aL3311L
aL1998L
aL8020L
aL3797L
aL7639L
aL9112L
atp1946
Rp1947
sL3340L
g1
((lp1948
L4961L
aL2278L
aL11399L
aL6022L
aL9164L
aL4207L
atp1949
Rp1950
sL406L
g1
((lp1951
L8257L
aL4L
aL3973L
aL7467L
aL11215L
aL7154L
atp1952
Rp1953
sL1011L
g1
((lp1954
L6210L
aL12484L
aL7655L
aL2607L
aL5167L
aL13400L
atp1955
Rp1956
sL2576L
g1
((lp1957
L5606L
aL4454L
aL11979L
aL13263L
aL7536L
aL12030L
atp1958
Rp1959
sL2474L
g1
((lp1960
L7599L
aL978L
aL787L
aL7988L
aL1653L
aL5660L
atp1961
Rp1962
sL2466L
g1
((lp1963
L3973L
aL4873L
aL4585L
aL3403L
aL2668L
aL12334L
aL10671L
aL11215L
aL2481L
aL10802L
aL1106L
aL7154L
aL5941L
aL8406L
aL4024L
aL2781L
atp1964
Rp1965
sL2669L
g1
((lp1966
L4646L
aL8041L
aL620L
aL10447L
aL3475L
atp1967
Rp1968
sL1492L
g1
((lp1969
L6624L
aL740L
aL12645L
aL3464L
aL13212L
aL7955L
aL8028L
atp1970
Rp1971
sL826L
g1
((lp1972
L2690L
aL13317L
aL9772L
aL3889L
aL1649L
aL7710L
atp1973
Rp1974
sL2171L
g1
((lp1975
L9081L
aL7174L
aL12587L
aL8748L
aL7883L
aL9519L
aL4946L
aL5593L
aL8223L
atp1976
Rp1977
sL106L
g1
((lp1978
L9313L
aL4578L
aL4196L
aL12264L
aL3545L
aL2227L
aL345L
atp1979
Rp1980
sL3269L
g1
((lp1981
L6016L
aL9282L
aL3415L
aL505L
aL1020L
aL12349L
atp1982
Rp1983
sL3358L
g1
((lp1984
L417L
aL6021L
aL5132L
aL10777L
aL1817L
aL10781L
atp1985
Rp1986
sL1986L
g1
((lp1987
L6947L
aL2763L
aL1583L
aL10487L
aL12059L
aL7165L
aL9503L
atp1988
Rp1989
sL3166L
g1
((lp1990
L7617L
aL3621L
aL5190L
aL11468L
aL115L
aL8758L
aL11770L
atp1991
Rp1992
sL496L
g1
((lp1993
L6279L
aL11464L
aL12587L
aL4204L
aL7373L
aL9486L
aL9051L
atp1994
Rp1995
sL3224L
g1
((lp1996
L4171L
aL7212L
aL10413L
aL1598L
atp1997
Rp1998
sL1238L
g1
((lp1999
L4483L
aL13039L
aL7570L
aL413L
aL12701L
atp2000
Rp2001
sL2234L
g1
((lp2002
L12103L
aL13008L
aL5331L
aL2839L
aL8506L
aL3005L
atp2003
Rp2004
sL927L
g1
((lp2005
L5955L
aL5606L
aL4167L
aL4205L
aL12334L
aL3509L
atp2006
Rp2007
sL1666L
g1
((lp2008
L11043L
aL234L
aL9135L
aL6777L
aL2521L
aL4415L
atp2009
Rp2010
sL2985L
g1
((lp2011
L11805L
aL13039L
aL10288L
aL7570L
aL12701L
aL4126L
atp2012
Rp2013
sL2590L
g1
((lp2014
L10081L
aL3266L
aL12462L
aL10863L
aL1303L
aL537L
aL7391L
atp2015
Rp2016
sL2060L
g1
((lp2017
L1544L
aL6475L
aL6347L
aL12398L
aL2872L
aL4508L
aL9407L
atp2018
Rp2019
sL193L
g1
((lp2020
L3136L
aL707L
aL6535L
aL2252L
aL12334L
aL2478L
aL4024L
aL5758L
atp2021
Rp2022
sL2273L
g1
((lp2023
L10049L
aL10123L
aL2255L
aL9207L
aL763L
aL5854L
atp2024
Rp2025
sL2790L
g1
((lp2026
L3714L
aL2020L
aL3015L
aL5580L
aL5904L
aL10134L
atp2027
Rp2028
sL673L
g1
((lp2029
L13083L
aL1858L
aL6537L
aL236L
aL460L
aL7768L
aL571L
aL4028L
atp2030
Rp2031
sL2976L
g1
((lp2032
L10249L
aL5835L
aL4430L
aL10611L
aL2454L
aL10583L
aL13370L
aL2111L
atp2033
Rp2034
sL2776L
g1
((lp2035
L3520L
aL4165L
aL3953L
aL3542L
aL10937L
aL1500L
atp2036
Rp2037
sL47L
g1
((lp2038
L4096L
aL6535L
aL4044L
aL12334L
aL4024L
aL5403L
atp2039
Rp2040
sL1043L
g1
((lp2041
L7713L
aL11979L
aL5997L
aL5231L
aL16L
aL6642L
atp2042
Rp2043
sL2914L
g1
((lp2044
L3824L
aL3390L
aL366L
aL11135L
atp2045
Rp2046
sL986L
g1
((lp2047
L4987L
aL12229L
aL6409L
aL6994L
aL8149L
aL1785L
aL5691L
atp2048
Rp2049
sL1313L
g1
((lp2050
L11302L
aL3048L
aL12074L
aL13264L
aL11221L
aL4662L
atp2051
Rp2052
sL2801L
g1
((lp2053
L1506L
aL839L
aL4410L
aL12532L
aL7288L
aL8314L
atp2054
Rp2055
sL3349L
g1
((lp2056
L7749L
aL6950L
aL10602L
aL12334L
aL4024L
aL1278L
atp2057
Rp2058
sL1344L
g1
((lp2059
L3304L
aL7436L
aL13039L
aL5845L
aL11801L
aL11805L
atp2060
Rp2061
sL1438L
g1
((lp2062
L4483L
aL9477L
aL9287L
aL3614L
aL13039L
aL11805L
aL413L
atp2063
Rp2064
sL526L
g1
((lp2065
L1766L
aL7533L
aL12051L
aL9943L
aL1208L
aL2749L
atp2066
Rp2067
sL2688L
g1
((lp2068
L3628L
aL5615L
aL1271L
aL8634L
aL5947L
atp2069
Rp2070
sL2883L
g1
((lp2071
L9282L
aL8834L
aL2478L
aL12334L
aL11378L
aL1589L
aL2459L
aL12222L
atp2072
Rp2073
sL1345L
g1
((lp2074
L3304L
aL6251L
aL13039L
aL10288L
aL7570L
aL7732L
aL4126L
atp2075
Rp2076
sL2589L
g1
((lp2077
L1220L
aL12580L
aL11435L
aL12750L
aL6839L
aL4922L
aL9885L
aL9054L
atp2078
Rp2079
sL1654L
g1
((lp2080
L8544L
aL6339L
aL10020L
aL10406L
aL5451L
aL13263L
aL3056L
aL10801L
aL5247L
atp2081
Rp2082
sL315L
g1
((lp2083
L11136L
aL3330L
aL2416L
aL8690L
aL883L
aL6677L
aL4917L
atp2084
Rp2085
sL768L
g1
((lp2086
L6405L
aL2520L
aL8459L
aL1611L
aL12300L
aL12334L
aL11182L
aL4024L
aL1054L
atp2087
Rp2088
sL2939L
g1
((lp2089
L7729L
aL3942L
aL3901L
aL1742L
atp2090
Rp2091
sL3365L
g1
((lp2092
L12202L
aL459L
aL2316L
aL11310L
aL12883L
aL5237L
atp2093
Rp2094
sL814L
g1
((lp2095
L6080L
aL7467L
aL10540L
aL10417L
aL1041L
aL4371L
aL13400L
atp2096
Rp2097
sL1881L
g1
((lp2098
L10086L
aL3273L
aL3888L
aL13328L
aL22L
aL11197L
atp2099
Rp2100
sL1743L
g1
((lp2101
L11558L
aL4939L
aL6668L
aL9169L
aL10450L
aL11441L
aL13406L
atp2102
Rp2103
sL929L
g1
((lp2104
L8544L
aL8260L
aL10284L
aL10801L
aL6546L
aL12059L
atp2105
Rp2106
sL2153L
g1
((lp2107
L417L
aL3973L
aL12334L
aL11215L
aL4024L
aL10777L
atp2108
Rp2109
sL300L
g1
((lp2110
L11523L
aL11109L
aL12334L
aL10740L
aL7797L
aL5403L
atp2111
Rp2112
sL2692L
g1
((lp2113
L11336L
aL6251L
aL13039L
aL656L
aL7570L
aL11801L
aL12701L
atp2114
Rp2115
sL1795L
g1
((lp2116
L8544L
aL7837L
aL11405L
aL13263L
aL856L
aL9277L
atp2117
Rp2118
sL443L
g1
((lp2119
L10627L
aL10249L
aL12329L
aL9645L
aL8334L
aL2010L
atp2120
Rp2121
sL2909L
g1
((lp2122
L13039L
aL10288L
aL7732L
aL4126L
aL3614L
aL4479L
atp2123
Rp2124
sL1196L
g1
((lp2125
L2181L
aL1135L
aL6164L
aL8917L
aL217L
aL9786L
atp2126
Rp2127
sL2325L
g1
((lp2128
L9665L
aL353L
aL3690L
aL4502L
aL11005L
aL8447L
atp2129
Rp2130
sL2333L
g1
((lp2131
L8354L
aL1734L
aL2635L
aL4761L
aL9114L
aL12797L
atp2132
Rp2133
sL2698L
g1
((lp2134
L8867L
aL4997L
aL3815L
aL5713L
aL6705L
aL10582L
atp2135
Rp2136
sL202L
g1
((lp2137
L8704L
aL4998L
aL7463L
aL13134L
aL1807L
aL2575L
aL11162L
atp2138
Rp2139
sL3310L
g1
((lp2140
L7719L
aL5101L
aL4976L
aL12058L
aL3387L
aL10237L
atp2141
Rp2142
sL1153L
g1
((lp2143
L8650L
aL2732L
aL443L
aL9529L
aL13211L
aL10686L
atp2144
Rp2145
sL2616L
g1
((lp2146
L10561L
aL417L
aL3973L
aL4873L
aL12334L
aL11215L
aL7154L
aL4024L
aL10777L
atp2147
Rp2148
sL1664L
g1
((lp2149
L10147L
aL3208L
aL12334L
aL5806L
aL2800L
aL3509L
aL7289L
aL1278L
atp2150
Rp2151
sL1543L
g1
((lp2152
L10498L
aL9445L
aL5099L
aL4785L
aL594L
aL117L
atp2153
Rp2154
sL2977L
g1
((lp2155
L8544L
aL2594L
aL3618L
aL12009L
aL233L
aL5674L
aL1782L
aL12407L
aL7837L
atp2156
Rp2157
sL850L
g1
((lp2158
L10048L
aL13263L
aL5493L
aL4367L
atp2159
Rp2160
sL2220L
g1
((lp2161
L3584L
aL13125L
aL10311L
aL10730L
aL3981L
aL3853L
atp2162
Rp2163
sL2954L
g1
((lp2164
L3139L
aL8260L
aL4072L
aL12777L
aL8876L
aL10102L
atp2165
Rp2166
sL636L
g1
((lp2167
L417L
aL971L
aL8846L
aL2351L
aL1106L
aL4024L
atp2168
Rp2169
sL2047L
g1
((lp2170
L1632L
aL2599L
aL3208L
aL1229L
aL5806L
aL12334L
atp2171
Rp2172
sL2768L
g1
((lp2173
L1830L
aL5995L
aL716L
aL4046L
aL2261L
aL9759L
atp2174
Rp2175
sL2457L
g1
((lp2176
L3590L
aL12334L
aL9297L
aL4024L
aL5980L
aL1278L
atp2177
Rp2178
sL3330L
g1
((lp2179
L13039L
aL10288L
aL12949L
aL11801L
aL413L
aL3614L
atp2180
Rp2181
sL291L
g1
((lp2182
L6375L
aL4528L
aL6033L
aL5906L
aL9430L
aL9726L
aL11071L
atp2183
Rp2184
sL1712L
g1
((lp2185
L4871L
aL5289L
aL9098L
aL3440L
aL1271L
aL2651L
atp2186
Rp2187
sL2612L
g1
((lp2188
L11538L
aL1779L
aL9558L
aL2870L
aL12570L
aL1693L
atp2189
Rp2190
sL236L
g1
((lp2191
L3621L
aL12942L
aL8758L
aL6778L
aL8317L
aL12863L
atp2192
Rp2193
sL2742L
g1
((lp2194
L8482L
aL1990L
aL12328L
aL12872L
aL6649L
aL5530L
atp2195
Rp2196
sL789L
g1
((lp2197
L6536L
aL2696L
aL11144L
aL6421L
aL8097L
aL7081L
aL5419L
aL3502L
aL6079L
aL7874L
aL7108L
aL2244L
aL9798L
aL10822L
aL1225L
aL9174L
aL2134L
aL11352L
aL9312L
aL10724L
aL869L
aL1780L
aL2039L
aL5628L
aL6143L
atp2198
Rp2199
sL2146L
g1
((lp2200
L3712L
aL2138L
aL7912L
aL8748L
aL8977L
aL1434L
atp2201
Rp2202
sL1149L
g1
((lp2203
L3296L
aL11429L
aL9067L
aL4720L
aL11093L
aL12185L
atp2204
Rp2205
sL2877L
g1
((lp2206
L7233L
aL9990L
aL5385L
aL3882L
aL12459L
aL2252L
aL12334L
aL6638L
aL1744L
aL4024L
aL1020L
aL8637L
aL10335L
aL11391L
atp2207
Rp2208
sL3307L
g1
((lp2209
L4679L
aL5615L
aL10386L
aL9941L
aL2967L
aL7806L
atp2210
Rp2211
sL1820L
g1
((lp2212
L10115L
aL6312L
aL6120L
aL8083L
aL8915L
aL8853L
atp2213
Rp2214
sL983L
g1
((lp2215
L13039L
aL7570L
aL413L
aL6397L
aL12701L
aL4479L
atp2216
Rp2217
sL567L
g1
((lp2218
L994L
aL10597L
aL12587L
aL2098L
aL12819L
aL11861L
aL9883L
atp2219
Rp2220
sL3242L
g1
((lp2221
L12832L
aL9281L
aL4224L
aL10467L
aL12744L
aL10760L
aL74L
aL4496L
aL12533L
aL5493L
aL3577L
atp2222
Rp2223
sL28L
g1
((lp2224
L9669L
aL5613L
aL11021L
aL12078L
aL6319L
aL11191L
atp2225
Rp2226
sL599L
g1
((lp2227
L389L
aL9160L
aL10665L
aL7756L
aL3920L
aL7321L
atp2228
Rp2229
sL971L
g1
((lp2230
L3680L
aL11136L
aL2818L
aL4275L
aL56L
aL6591L
atp2231
Rp2232
sL1801L
g1
((lp2233
L10597L
aL10708L
aL11161L
aL11674L
aL10299L
aL6620L
atp2234
Rp2235
sL246L
g1
((lp2236
L8327L
aL12331L
aL6251L
aL7799L
aL11032L
aL6938L
aL4126L
atp2237
Rp2238
sL470L
g1
((lp2239
L4677L
aL3208L
aL11945L
aL8714L
aL12334L
aL5806L
aL5616L
aL4624L
aL7156L
aL3509L
aL12759L
aL12508L
aL1278L
atp2240
Rp2241
sL706L
g1
((lp2242
L10468L
aL9764L
aL7080L
aL1417L
aL6961L
aL3828L
atp2243
Rp2244
sL92L
g1
((lp2245
L10048L
aL8544L
aL7536L
aL8917L
aL5493L
aL10293L
atp2246
Rp2247
sL1077L
g1
((lp2248
L8904L
aL13033L
aL1838L
aL7251L
aL6581L
aL2811L
atp2249
Rp2250
sL3272L
g1
((lp2251
L11584L
aL2245L
aL8201L
aL2092L
aL817L
aL11197L
atp2252
Rp2253
sL2381L
g1
((lp2254
L3785L
aL6989L
aL5557L
aL10970L
aL12573L
atp2255
Rp2256
sL2373L
g1
((lp2257
L2597L
aL3499L
aL5901L
aL12691L
aL9240L
aL3325L
atp2258
Rp2259
sL2342L
g1
((lp2260
L9287L
aL13039L
aL10288L
aL12949L
aL5845L
aL4126L
aL11805L
aL3614L
atp2261
Rp2262
sL1560L
g1
((lp2263
L3208L
aL5806L
aL12334L
aL13118L
aL2800L
aL12851L
aL1278L
atp2264
Rp2265
sL2051L
g1
((lp2266
L2403L
aL10116L
aL7367L
aL10440L
aL2448L
aL4240L
aL11379L
aL7443L
aL9974L
aL7544L
aL8090L
atp2267
Rp2268
sL2532L
g1
((lp2269
L9287L
aL13039L
aL10288L
aL4126L
aL11805L
aL3614L
atp2270
Rp2271
sL2685L
g1
((lp2272
L11179L
aL6768L
aL3249L
aL6962L
aL13079L
aL9241L
atp2273
Rp2274
sL1569L
g1
((lp2275
L8544L
aL12103L
aL1514L
aL592L
aL8179L
aL6901L
aL3615L
atp2276
Rp2277
sL33L
g1
((lp2278
L6351L
aL2256L
aL12148L
aL13365L
aL2038L
aL1214L
atp2279
Rp2280
sL806L
g1
((lp2281
L13024L
aL4996L
aL8068L
aL12036L
aL10951L
aL6920L
aL1190L
aL7211L
aL6187L
aL2382L
aL10992L
aL10898L
aL13269L
aL5336L
aL857L
aL9405L
atp2282
Rp2283
sL333L
g1
((lp2284
L4680L
aL10218L
aL3855L
aL5073L
aL4051L
aL8383L
atp2285
Rp2286
sL2642L
g1
((lp2287
L9410L
aL7238L
aL9261L
aL3917L
aL12307L
aL4051L
aL7389L
atp2288
Rp2289
sL2994L
g1
((lp2290
L3712L
aL963L
aL6028L
aL1324L
aL8748L
aL13302L
atp2291
Rp2292
sL2838L
g1
((lp2293
L1376L
aL10339L
aL9518L
aL13332L
aL3989L
aL5815L
atp2294
Rp2295
sL1991L
g1
((lp2296
L9281L
aL2149L
aL46L
aL9331L
aL10296L
aL7806L
atp2297
Rp2298
sL1245L
g1
((lp2299
L2252L
aL12334L
aL6158L
aL2478L
aL4024L
aL11391L
atp2300
Rp2301
sL2408L
g1
((lp2302
L8834L
aL12334L
aL2478L
aL11697L
aL8662L
atp2303
Rp2304
sL1415L
g1
((lp2305
L8355L
aL8903L
aL7017L
aL4843L
aL7445L
aL6998L
aL3031L
aL13337L
aL7068L
atp2306
Rp2307
sL210L
g1
((lp2308
L5385L
aL2252L
aL12334L
aL2478L
aL4024L
aL1278L
atp2309
Rp2310
sL21L
g1
((lp2311
L5507L
aL3336L
aL12829L
aL3240L
aL9384L
aL6186L
aL4268L
aL11821L
aL6965L
aL7607L
aL11320L
aL824L
aL6203L
aL6844L
aL8769L
aL1987L
aL3787L
aL3152L
aL13395L
aL11351L
aL865L
aL9569L
aL995L
aL237L
aL13295L
aL7280L
aL11248L
aL12147L
aL8563L
aL2294L
aL11129L
aL7551L
atp2312
Rp2313
sL138L
g1
((lp2314
L8813L
aL12845L
aL4627L
aL10748L
aL4189L
aL12734L
atp2315
Rp2316
sL203L
g1
((lp2317
L1411L
aL10279L
aL375L
aL13085L
aL7646L
aL3167L
atp2318
Rp2319
sL1870L
g1
((lp2320
L2594L
aL12805L
aL9488L
aL2129L
aL6906L
aL7837L
atp2321
Rp2322
sL2423L
g1
((lp2323
L13217L
aL2117L
aL12805L
aL6858L
aL12394L
aL5080L
atp2324
Rp2325
sL1311L
g1
((lp2326
L3208L
aL5806L
aL12334L
aL9488L
aL3509L
aL1278L
atp2327
Rp2328
sL793L
g1
((lp2329
L2083L
aL12805L
aL12855L
aL3773L
aL6878L
atp2330
Rp2331
sL2288L
g1
((lp2332
L6883L
aL9669L
aL6319L
aL13363L
aL11191L
aL8569L
atp2333
Rp2334
sL2327L
g1
((lp2335
L3844L
aL13098L
aL12971L
aL6161L
aL6357L
aL3230L
atp2336
Rp2337
sL2241L
g1
((lp2338
L4224L
aL6658L
aL11304L
aL12394L
aL9555L
aL3031L
atp2339
Rp2340
sL840L
g1
((lp2341
L3105L
aL12204L
aL4173L
aL1623L
aL5403L
aL1278L
atp2342
Rp2343
sL531L
g1
((lp2344
L13152L
aL10026L
aL10320L
aL7473L
aL11636L
aL12319L
atp2345
Rp2346
sL2633L
g1
((lp2347
L9793L
aL8826L
aL5204L
aL6805L
atp2348
Rp2349
sL553L
g1
((lp2350
L641L
aL3304L
aL13039L
aL7570L
aL12701L
aL4126L
atp2351
Rp2352
sL2398L
g1
((lp2353
L1632L
aL3208L
aL11945L
aL3273L
aL5806L
aL11862L
aL9117L
atp2354
Rp2355
sL2035L
g1
((lp2356
L320L
aL11450L
aL5732L
aL1143L
atp2357
Rp2358
sL2911L
g1
((lp2359
L11296L
aL2535L
aL7977L
aL6923L
aL4119L
aL10136L
atp2360
Rp2361
sL2104L
g1
((lp2362
L6816L
aL4751L
aL8755L
aL8276L
aL11253L
aL8758L
atp2363
Rp2364
sL1757L
g1
((lp2365
L2252L
aL3950L
aL2478L
aL12334L
aL4024L
aL1278L
atp2366
Rp2367
sL3016L
g1
((lp2368
L744L
aL6344L
aL7806L
aL9713L
aL5269L
aL11390L
atp2369
Rp2370
sL785L
g1
((lp2371
L8327L
aL1096L
aL12331L
aL6251L
aL2445L
aL89L
atp2372
Rp2373
sL2062L
g1
((lp2374
L133L
aL2982L
aL12774L
aL11685L
aL7237L
aL7806L
atp2375
Rp2376
sL1810L
g1
((lp2377
L3012L
aL9477L
aL13039L
aL656L
aL12949L
aL10841L
aL11805L
aL413L
atp2378
Rp2379
sL1588L
g1
((lp2380
L1582L
aL12755L
aL3571L
aL12855L
aL5914L
aL10236L
aL12159L
atp2381
Rp2382
sL1707L
g1
((lp2383
L11361L
aL4491L
aL13069L
aL8079L
aL4212L
aL4596L
atp2384
Rp2385
sL12L
g1
((lp2386
L6150L
aL13039L
aL10288L
aL12949L
aL413L
aL4126L
atp2387
Rp2388
sL161L
g1
((lp2389
L3208L
aL5806L
aL12334L
aL7156L
aL10422L
aL9656L
aL572L
aL1278L
atp2390
Rp2391
sL2928L
g1
((lp2392
L2252L
aL1613L
aL12334L
aL2478L
aL4024L
aL7416L
atp2393
Rp2394
sL2619L
g1
((lp2395
L3072L
aL1122L
aL9445L
aL6950L
aL7238L
aL3917L
aL7666L
aL3348L
aL4532L
aL5013L
aL13311L
atp2396
Rp2397
sL3279L
g1
((lp2398
L6251L
aL13039L
aL10288L
aL7570L
aL6397L
aL4126L
atp2399
Rp2400
sL1656L
g1
((lp2401
L6884L
aL5829L
aL4678L
aL8903L
aL1445L
aL5481L
aL4593L
aL9784L
aL634L
aL5597L
aL7806L
aL5247L
atp2402
Rp2403
sL1446L
g1
((lp2404
L6883L
aL8742L
aL711L
aL3335L
aL11597L
aL6135L
aL12984L
atp2405
Rp2406
sL2015L
g1
((lp2407
L10593L
aL5345L
aL5191L
aL2972L
aL13341L
aL6398L
atp2408
Rp2409
sL2786L
g1
((lp2410
L8544L
aL9281L
aL2594L
aL13263L
aL7536L
aL8917L
aL9151L
atp2411
Rp2412
sL2041L
g1
((lp2413
L12961L
aL3619L
aL99L
aL10888L
aL6868L
aL6746L
aL1279L
atp2414
Rp2415
sL533L
g1
((lp2416
L235L
aL11570L
aL5140L
aL1332L
aL693L
aL10973L
aL3647L
atp2417
Rp2418
sL2595L
g1
((lp2419
L12579L
aL2600L
aL3948L
aL1548L
aL11980L
aL2099L
aL5396L
aL5946L
aL4541L
atp2420
Rp2421
sL3305L
g1
((lp2422
L6251L
aL13039L
aL6608L
aL10288L
aL12949L
aL4126L
atp2423
Rp2424
sL396L
g1
((lp2425
L6496L
aL13409L
aL6083L
aL7366L
aL11088L
aL13042L
aL9527L
atp2426
Rp2427
sL3029L
g1
((lp2428
L2594L
aL4167L
aL2599L
aL4873L
aL10506L
aL11215L
atp2429
Rp2430
sL536L
g1
((lp2431
L9287L
aL7436L
aL13039L
aL7732L
aL11801L
aL4126L
atp2432
Rp2433
sL221L
g1
((lp2434
L6019L
aL7203L
aL9062L
aL3112L
aL4023L
aL13246L
atp2435
Rp2436
sL2812L
g1
((lp2437
L5735L
aL1576L
aL715L
aL12944L
aL6164L
aL217L
atp2438
Rp2439
sL820L
g1
((lp2440
L5255L
aL8525L
aL4815L
aL2063L
aL12432L
aL3030L
aL6743L
aL6556L
atp2441
Rp2442
sL1641L
g1
((lp2443
L12864L
aL4605L
aL4066L
aL2002L
aL8187L
aL7261L
atp2444
Rp2445
sL2100L
g1
((lp2446
L5218L
aL4676L
aL1030L
aL8006L
aL10858L
aL8074L
aL4077L
aL1518L
aL4529L
aL12888L
atp2447
Rp2448
sL3119L
g1
((lp2449
L2252L
aL12334L
aL2478L
aL12279L
aL4024L
aL6233L
atp2450
Rp2451
sL1416L
g1
((lp2452
L10249L
aL2252L
aL12334L
aL2478L
aL4024L
aL12767L
atp2453
Rp2454
sL577L
g1
((lp2455
L11900L
aL193L
aL4393L
aL9577L
aL8604L
aL8956L
atp2456
Rp2457
sL3212L
g1
((lp2458
L3620L
aL8137L
aL9074L
aL9337L
aL5371L
aL8509L
atp2459
Rp2460
sL1082L
g1
((lp2461
L6242L
aL8227L
aL4421L
aL3142L
aL10551L
aL6908L
atp2462
Rp2463
sL1684L
g1
((lp2464
L6784L
aL1606L
aL12679L
aL7082L
aL5743L
aL126L
atp2465
Rp2466
sL1589L
g1
((lp2467
L5569L
aL9669L
aL3753L
aL11021L
aL4178L
aL9332L
atp2468
Rp2469
sL2239L
g1
((lp2470
L3745L
aL1923L
aL5637L
aL10854L
aL11469L
aL3292L
atp2471
Rp2472
sL1087L
g1
((lp2473
L9254L
aL3917L
aL9453L
aL2896L
aL2068L
aL2938L
atp2474
Rp2475
sL1157L
g1
((lp2476
L996L
aL2149L
aL5034L
aL1615L
aL11921L
aL10357L
aL12216L
aL9753L
aL1466L
aL7615L
atp2477
Rp2478
sL2364L
g1
((lp2479
L37L
aL12456L
aL9004L
aL1613L
aL3917L
aL1405L
atp2480
Rp2481
sL490L
g1
((lp2482
L11233L
aL9281L
aL7750L
aL1415L
aL8395L
aL5493L
aL7928L
aL12797L
atp2483
Rp2484
sL1571L
g1
((lp2485
L4931L
aL12348L
aL8628L
aL8758L
aL8855L
aL6012L
atp2486
Rp2487
sL1027L
g1
((lp2488
L4873L
aL12334L
aL8846L
aL7984L
aL10777L
aL7154L
aL8466L
aL3478L
aL4024L
aL185L
aL4216L
atp2489
Rp2490
sL3262L
g1
((lp2491
L12649L
aL5100L
aL8596L
aL3959L
aL2777L
aL3807L
atp2492
Rp2493
sL2764L
g1
((lp2494
L4771L
aL2822L
aL8616L
aL3572L
aL4117L
aL1109L
aL10136L
aL4316L
atp2495
Rp2496
sL2432L
g1
((lp2497
L8544L
aL10020L
aL8395L
aL12944L
aL8917L
atp2498
Rp2499
sL3132L
g1
((lp2500
L10401L
aL5423L
aL10577L
aL10324L
aL1305L
aL9116L
atp2501
Rp2502
sL2233L
g1
((lp2503
L6914L
aL12903L
aL396L
aL12013L
aL12334L
aL13370L
aL1278L
atp2504
Rp2505
sL1026L
g1
((lp2506
L10802L
aL9940L
aL8406L
aL4025L
aL10906L
aL2781L
atp2507
Rp2508
sL111L
g1
((lp2509
L5189L
aL2252L
aL7374L
aL7026L
aL1492L
aL4024L
aL11391L
atp2510
Rp2511
sL861L
g1
((lp2512
L4965L
aL12009L
aL3408L
aL8341L
aL12565L
aL10142L
atp2513
Rp2514
sL1439L
g1
((lp2515
L2529L
aL3208L
aL5806L
aL12334L
aL5337L
aL1278L
atp2516
Rp2517
sL3037L
g1
((lp2518
L1312L
aL417L
aL9411L
aL3109L
aL5917L
aL3185L
aL5753L
aL1817L
aL13240L
aL10777L
aL4381L
aL3997L
aL8479L
atp2519
Rp2520
sL638L
g1
((lp2521
L4834L
aL5574L
aL2248L
aL8873L
aL3535L
aL7737L
aL4541L
atp2522
Rp2523
sL214L
g1
((lp2524
L9729L
aL8836L
aL5257L
aL5141L
aL6551L
aL152L
aL2725L
aL3110L
aL7720L
aL4146L
aL8117L
aL9653L
aL13112L
aL13374L
aL833L
aL12483L
aL1859L
aL584L
aL4940L
aL3542L
aL5979L
aL603L
aL6879L
aL9194L
aL10348L
aL9842L
aL2550L
aL2808L
atp2525
Rp2526
sL2724L
g1
((lp2527
L10405L
aL1645L
aL3150L
aL143L
aL11965L
aL1695L
atp2528
Rp2529
sL700L
g1
((lp2530
L4130L
aL7210L
aL6862L
aL10446L
aL5332L
aL4725L
aL5050L
atp2531
Rp2532
sL758L
g1
((lp2533
L11201L
aL2924L
aL7565L
aL879L
aL594L
aL1917L
atp2534
Rp2535
sL292L
g1
((lp2536
L4289L
aL6914L
aL1865L
aL9865L
aL12013L
aL11407L
aL4210L
aL7863L
atp2537
Rp2538
sL1570L
g1
((lp2539
L7365L
aL4751L
aL6098L
aL8276L
aL12021L
aL7931L
atp2540
Rp2541
sL2948L
g1
((lp2542
L4224L
aL11302L
aL11921L
aL669L
aL7806L
aL2687L
atp2543
Rp2544
sL3125L
g1
((lp2545
L7906L
aL10762L
aL5616L
aL3314L
aL13272L
aL4954L
aL10622L
atp2546
Rp2547
sL2891L
g1
((lp2548
L5282L
aL9445L
aL7238L
aL7464L
aL9867L
aL3917L
atp2549
Rp2550
sL2418L
g1
((lp2551
L9669L
aL10124L
aL3918L
aL10068L
aL3740L
aL8509L
atp2552
Rp2553
sL932L
g1
((lp2554
L1600L
aL9896L
aL6635L
aL12334L
aL1457L
aL4024L
atp2555
Rp2556
sL1341L
g1
((lp2557
L9669L
aL10503L
aL5512L
aL12078L
aL13363L
aL12984L
atp2558
Rp2559
sL3011L
g1
((lp2560
L5189L
aL2252L
aL12334L
aL4024L
aL4093L
aL11391L
atp2561
Rp2562
sL1591L
g1
((lp2563
L4131L
aL1701L
aL999L
aL1003L
aL13170L
aL858L
atp2564
Rp2565
sL450L
g1
((lp2566
L12578L
aL8912L
aL3635L
aL2744L
aL8573L
aL10079L
atp2567
Rp2568
sL3124L
g1
((lp2569
L2594L
aL10406L
aL12852L
aL12313L
aL1658L
aL7837L
atp2570
Rp2571
sL2550L
g1
((lp2572
L11371L
aL5875L
aL12819L
aL1273L
aL1212L
aL10205L
atp2573
Rp2574
sL1045L
g1
((lp2575
L9990L
aL2252L
aL2478L
aL12334L
aL4024L
aL8637L
aL11391L
atp2576
Rp2577
sL1998L
g1
((lp2578
L12416L
aL9761L
aL3616L
aL12706L
aL4710L
aL8359L
aL1993L
aL8172L
aL5646L
aL8848L
aL7346L
aL8722L
aL6260L
aL11669L
aL788L
aL13014L
aL6425L
aL9437L
aL9150L
aL6527L
atp2579
Rp2580
sL2494L
g1
((lp2581
L5666L
aL1763L
aL6445L
aL11437L
aL5618L
aL1110L
atp2582
Rp2583
sL3379L
g1
((lp2584
L10272L
aL4290L
aL3368L
aL11185L
aL3955L
aL5502L
atp2585
Rp2586
sL2964L
g1
((lp2587
L417L
aL1733L
aL3973L
aL4873L
aL12334L
aL11215L
aL2351L
aL7154L
aL4024L
aL10777L
atp2588
Rp2589
sL2941L
g1
((lp2590
L6950L
aL871L
aL2252L
aL12334L
aL2478L
aL11955L
aL4024L
aL1278L
aL11391L
atp2591
Rp2592
sL284L
g1
((lp2593
L3461L
aL6950L
aL7628L
aL12334L
aL4024L
aL6233L
aL5852L
aL1278L
atp2594
Rp2595
sL833L
g1
((lp2596
L1827L
aL3911L
aL11370L
aL10989L
aL7151L
aL2192L
aL4860L
atp2597
Rp2598
sL3260L
g1
((lp2599
L3614L
aL13039L
aL10288L
aL7570L
aL12949L
aL4126L
aL4479L
atp2600
Rp2601
sL3255L
g1
((lp2602
L7618L
aL6950L
aL8780L
aL3917L
aL7628L
aL6094L
aL3858L
aL6067L
atp2603
Rp2604
sL1518L
g1
((lp2605
L2252L
aL1836L
aL12334L
aL2478L
aL4024L
aL4441L
aL1278L
aL11391L
atp2606
Rp2607
sL2069L
g1
((lp2608
L9281L
aL7806L
aL6486L
aL11482L
atp2609
Rp2610
sL572L
g1
((lp2611
L13039L
aL10288L
aL7570L
aL4126L
aL6397L
aL3614L
atp2612
Rp2613
sL2209L
g1
((lp2614
L6404L
aL2759L
aL8846L
aL12944L
aL10102L
aL7837L
atp2615
Rp2616
sL3343L
g1
((lp2617
L3614L
aL13039L
aL12949L
aL11801L
aL4126L
aL4479L
atp2618
Rp2619
sL1836L
g1
((lp2620
L8755L
aL8276L
aL11253L
aL8758L
aL8855L
aL2745L
atp2621
Rp2622
sL2161L
g1
((lp2623
L2567L
aL12840L
aL6508L
aL8465L
aL2804L
aL3100L
atp2624
Rp2625
sL2378L
g1
((lp2626
L3961L
aL8805L
aL6310L
aL2346L
aL13039L
aL5619L
aL3733L
aL5913L
atp2627
Rp2628
sL1432L
g1
((lp2629
L8105L
aL1484L
aL7244L
aL629L
aL6168L
aL3358L
atp2630
Rp2631
sL2715L
g1
((lp2632
L3394L
aL11683L
aL3523L
aL10948L
aL11946L
aL268L
aL8402L
aL12276L
aL694L
aL11452L
aL13149L
aL9086L
atp2633
Rp2634
sL338L
g1
((lp2635
L1667L
aL11493L
aL583L
aL8363L
aL1773L
aL10168L
atp2636
Rp2637
sL903L
g1
((lp2638
L10439L
aL8040L
aL459L
aL6828L
aL2316L
aL922L
atp2639
Rp2640
sL1554L
g1
((lp2641
L9669L
aL11117L
aL3918L
aL12144L
aL11611L
aL6463L
atp2642
Rp2643
sL2506L
g1
((lp2644
L13057L
aL5668L
aL2917L
aL5894L
aL10375L
aL10635L
aL7660L
aL2413L
aL12497L
aL1363L
aL9686L
aL11807L
atp2645
Rp2646
sL2968L
g1
((lp2647
L7085L
aL12334L
aL7087L
aL5300L
aL11258L
atp2648
Rp2649
sL1955L
g1
((lp2650
L9287L
aL13039L
aL10288L
aL7570L
aL6397L
aL4126L
atp2651
Rp2652
sL882L
g1
((lp2653
L13228L
aL12146L
aL6165L
aL9431L
aL4024L
aL9178L
aL11420L
atp2654
Rp2655
sL1325L
g1
((lp2656
L6818L
aL4931L
aL11468L
aL11253L
aL8758L
aL11833L
aL12348L
atp2657
Rp2658
sL229L
g1
((lp2659
L8260L
aL1765L
aL4072L
aL12906L
aL7467L
aL13263L
aL7536L
aL10801L
aL12059L
atp2660
Rp2661
sL2489L
g1
((lp2662
L7107L
aL7919L
aL3026L
aL1586L
aL10038L
aL2427L
aL9374L
atp2663
Rp2664
sL3113L
g1
((lp2665
L3106L
aL6243L
aL8123L
aL7855L
aL11123L
aL10548L
aL6167L
aL5079L
aL6584L
aL3930L
aL10779L
aL8285L
atp2666
Rp2667
sL1382L
g1
((lp2668
L9443L
aL2252L
aL12334L
aL2478L
aL6386L
aL8979L
aL7766L
aL4024L
aL1278L
aL11391L
atp2669
Rp2670
sL2076L
g1
((lp2671
L1280L
aL4003L
aL3300L
aL5863L
aL7694L
aL1113L
atp2672
Rp2673
sL1059L
g1
((lp2674
L9796L
aL11976L
aL7789L
aL5874L
aL2674L
aL3290L
atp2675
Rp2676
sL1141L
g1
((lp2677
L8902L
aL4006L
aL1355L
aL8588L
aL12013L
aL6959L
atp2678
Rp2679
sL594L
g1
((lp2680
L4931L
aL6012L
aL11253L
aL8758L
aL12348L
atp2681
Rp2682
sL369L
g1
((lp2683
L3234L
aL10249L
aL2185L
aL9455L
aL4985L
aL6367L
atp2684
Rp2685
sL554L
g1
((lp2686
L417L
aL3973L
aL4235L
aL7164L
aL2414L
aL7059L
aL3509L
aL188L
aL10622L
atp2687
Rp2688
sL3377L
g1
((lp2689
L12678L
aL3879L
aL3887L
aL8209L
aL8851L
aL12660L
atp2690
Rp2691
sL2682L
g1
((lp2692
L2339L
aL391L
aL7600L
aL7794L
aL10802L
aL5779L
aL3287L
aL2781L
aL3327L
atp2693
Rp2694
sL1226L
g1
((lp2695
L8194L
aL12614L
aL13094L
aL7432L
aL2317L
aL6192L
atp2696
Rp2697
sL1529L
g1
((lp2698
L1984L
aL12961L
aL2913L
aL3619L
aL8771L
aL99L
aL11428L
aL199L
aL6868L
aL6746L
aL8822L
aL5463L
aL1304L
aL12378L
aL668L
aL1279L
atp2699
Rp2700
sL37L
g1
((lp2701
L4356L
aL1417L
aL10395L
aL9113L
aL8475L
aL8703L
atp2702
Rp2703
sL1640L
g1
((lp2704
L12800L
aL11805L
aL1443L
aL13039L
aL413L
aL10238L
atp2705
Rp2706
sL2654L
g1
((lp2707
L8544L
aL13283L
aL11428L
aL11302L
aL3048L
aL4662L
aL4823L
atp2708
Rp2709
sL1675L
g1
((lp2710
L12354L
aL3204L
aL8262L
aL1611L
aL12334L
aL5102L
aL4024L
aL13240L
aL1278L
atp2711
Rp2712
sL2007L
g1
((lp2713
L1345L
aL12517L
aL3917L
aL1497L
aL573L
aL6559L
atp2714
Rp2715
sL2358L
g1
((lp2716
L13282L
aL9730L
aL6341L
aL9869L
aL4477L
aL6845L
atp2717
Rp2718
sL1049L
g1
((lp2719
L6344L
aL3242L
aL13231L
aL10671L
aL2676L
aL3674L
atp2720
Rp2721
sL2109L
g1
((lp2722
L6344L
aL1618L
aL10038L
aL2678L
aL10518L
aL2716L
atp2723
Rp2724
sL2385L
g1
((lp2725
L9984L
aL6251L
aL6190L
aL13039L
aL11125L
aL4126L
atp2726
Rp2727
sL2966L
g1
((lp2728
L9935L
aL6545L
aL7606L
aL600L
aL4063L
atp2729
Rp2730
sL1968L
g1
((lp2731
L5831L
aL203L
aL9167L
aL9658L
aL4818L
aL1110L
aL3418L
atp2732
Rp2733
sL1564L
g1
((lp2734
L12000L
aL4224L
aL1282L
aL4832L
aL2786L
aL3816L
aL12393L
aL7178L
aL273L
aL12797L
atp2735
Rp2736
sL2067L
g1
((lp2737
L610L
aL3461L
aL10782L
aL12334L
aL816L
aL4024L
aL1278L
atp2738
Rp2739
sL1987L
g1
((lp2740
L10656L
aL4105L
aL6349L
aL10770L
aL1942L
aL8409L
atp2741
Rp2742
sL2739L
g1
((lp2743
L9282L
aL11147L
aL12204L
aL9838L
aL2426L
aL7293L
aL1278L
atp2744
Rp2745
sL853L
g1
((lp2746
L7941L
aL6001L
aL8855L
aL11833L
aL4988L
aL2559L
atp2747
Rp2748
sL2353L
g1
((lp2749
L9730L
aL1059L
aL9223L
aL5040L
aL6130L
aL7698L
atp2750
Rp2751
sL2276L
g1
((lp2752
L3712L
aL13319L
aL5609L
aL1966L
aL335L
aL3153L
aL4021L
aL5367L
aL11640L
aL2617L
aL5274L
aL508L
atp2753
Rp2754
sL707L
g1
((lp2755
L7521L
aL1776L
aL913L
aL4464L
aL10616L
aL13145L
aL1403L
atp2756
Rp2757
sL2708L
g1
((lp2758
L12000L
aL5666L
aL3973L
aL4167L
aL11215L
aL185L
atp2759
Rp2760
sL1845L
g1
((lp2761
L7370L
aL5034L
aL2122L
aL13264L
aL12944L
aL1721L
aL2618L
atp2762
Rp2763
sL449L
g1
((lp2764
L5024L
aL3172L
aL4036L
aL10054L
aL4594L
aL12309L
atp2765
Rp2766
sL915L
g1
((lp2767
L13059L
aL10807L
aL3273L
aL12725L
aL4215L
aL9247L
atp2768
Rp2769
sL1437L
g1
((lp2770
L9287L
aL13039L
aL7570L
aL5845L
aL6397L
aL4126L
atp2771
Rp2772
sL2437L
g1
((lp2773
L8611L
aL5676L
aL8975L
aL12185L
aL4219L
atp2774
Rp2775
sL2822L
g1
((lp2776
L7713L
aL9412L
aL6952L
aL266L
aL1677L
aL6682L
aL7806L
atp2777
Rp2778
sL2435L
g1
((lp2779
L12737L
aL9605L
aL10280L
aL5450L
aL11313L
aL10485L
aL9722L
atp2780
Rp2781
sL1695L
g1
((lp2782
L8928L
aL7979L
aL9932L
aL6676L
aL10039L
aL4346L
atp2783
Rp2784
sL2707L
g1
((lp2785
L3304L
aL13039L
aL10288L
aL7570L
aL12701L
aL4126L
atp2786
Rp2787
sL0L
g1
((lp2788
L6981L
aL11751L
aL431L
aL11733L
aL11865L
aL6267L
atp2789
Rp2790
sL298L
g1
((lp2791
L8899L
aL5860L
aL1637L
aL12006L
aL1707L
aL6896L
aL8725L
aL8021L
aL2677L
aL12853L
aL12380L
aL2493L
atp2792
Rp2793
sL339L
g1
((lp2794
L10249L
aL2252L
aL12334L
aL2478L
aL4024L
aL11391L
atp2795
Rp2796
sL1007L
g1
((lp2797
L6368L
aL4480L
aL10404L
aL6762L
aL2957L
aL11189L
aL4159L
atp2798
Rp2799
sL1950L
g1
((lp2800
L9287L
aL10249L
aL11151L
aL13039L
aL12464L
atp2801
Rp2802
sL265L
g1
((lp2803
L8544L
aL8689L
aL5493L
aL7865L
aL13244L
aL7837L
atp2804
Rp2805
sL2959L
g1
((lp2806
L6950L
aL5385L
aL12459L
aL2252L
aL12334L
aL4024L
aL4767L
atp2807
Rp2808
sL1042L
g1
((lp2809
L4033L
aL3278L
aL9838L
aL1520L
aL10392L
aL5564L
aL1278L
atp2810
Rp2811
sL686L
g1
((lp2812
L11744L
aL10469L
aL7019L
aL13135L
aL2807L
atp2813
Rp2814
sL1094L
g1
((lp2815
L2342L
aL2248L
aL7020L
aL3535L
aL5555L
aL12375L
aL7737L
atp2816
Rp2817
sL3095L
g1
((lp2818
L9287L
aL8327L
aL12331L
aL2445L
aL11151L
aL89L
atp2819
Rp2820
sL1500L
g1
((lp2821
L11805L
aL12701L
aL13039L
aL7570L
aL413L
aL3614L
atp2822
Rp2823
sL3341L
g1
((lp2824
L11530L
aL7153L
aL10802L
aL9940L
aL7221L
aL150L
aL2423L
aL2781L
aL3327L
atp2825
Rp2826
sL1018L
g1
((lp2827
L1067L
aL9008L
aL11730L
aL4693L
aL1241L
aL11325L
atp2828
Rp2829
sL1024L
g1
((lp2830
L487L
aL11693L
aL8589L
aL6126L
aL4627L
atp2831
Rp2832
sL957L
g1
((lp2833
L1896L
aL719L
aL5615L
aL4147L
aL10611L
aL1271L
atp2834
Rp2835
sL3345L
g1
((lp2836
L6251L
aL4374L
aL11032L
aL10300L
aL6397L
aL4126L
atp2837
Rp2838
sL1418L
g1
((lp2839
L2690L
aL12803L
aL11878L
aL3889L
aL4660L
aL12661L
atp2840
Rp2841
sL1700L
g1
((lp2842
L6853L
aL12362L
aL2267L
aL1204L
aL7093L
aL1243L
atp2843
Rp2844
sL1135L
g1
((lp2845
L12194L
aL7434L
aL6922L
aL2191L
aL8695L
aL11231L
atp2846
Rp2847
sL770L
g1
((lp2848
L4800L
aL7297L
aL11586L
aL1336L
aL4263L
aL5806L
aL12334L
aL6865L
aL2515L
aL8693L
aL1848L
aL2843L
aL7741L
atp2849
Rp2850
sL2116L
g1
((lp2851
L11805L
aL13039L
aL10288L
aL7570L
aL12701L
aL4126L
atp2852
Rp2853
sL2164L
g1
((lp2854
L8036L
aL1444L
aL4165L
aL3528L
aL11979L
aL2166L
aL185L
atp2855
Rp2856
sL1204L
g1
((lp2857
L12352L
aL3917L
aL9812L
aL1332L
aL2167L
aL12279L
aL7999L
atp2858
Rp2859
sL77L
g1
((lp2860
L13250L
aL6602L
aL12266L
aL3728L
aL8241L
aL887L
atp2861
Rp2862
sL2951L
g1
((lp2863
L2241L
aL11747L
aL3973L
aL9734L
aL7334L
aL8043L
aL11215L
aL572L
aL12511L
atp2864
Rp2865
sL234L
g1
((lp2866
L8712L
aL5483L
aL12492L
aL3637L
aL11897L
aL6175L
atp2867
Rp2868
sL2621L
g1
((lp2869
L8260L
aL7655L
aL1608L
aL4332L
aL4367L
aL13183L
atp2870
Rp2871
sL614L
g1
((lp2872
L3614L
aL11336L
aL13039L
aL5845L
aL413L
aL4126L
atp2873
Rp2874
sL3133L
g1
((lp2875
L899L
aL5388L
aL2389L
aL9212L
aL6365L
aL1983L
atp2876
Rp2877
sL560L
g1
((lp2878
L10626L
aL6757L
aL5285L
aL10694L
aL13386L
aL4715L
aL844L
aL3565L
aL11347L
aL13333L
aL6009L
aL10971L
atp2879
Rp2880
sL2681L
g1
((lp2881
L3425L
aL9870L
aL7986L
aL13081L
aL7259L
aL9694L
atp2882
Rp2883
sL2916L
g1
((lp2884
L13039L
aL10288L
aL12949L
aL4126L
aL6397L
aL11805L
aL3614L
atp2885
Rp2886
sL281L
g1
((lp2887
L3973L
aL13254L
aL4873L
aL11215L
aL7154L
aL4024L
aL3901L
atp2888
Rp2889
sL2892L
g1
((lp2890
L8610L
aL6629L
aL1158L
aL12076L
aL6035L
aL10334L
atp2891
Rp2892
sL1939L
g1
((lp2893
L1443L
aL9287L
aL13039L
aL10288L
aL7570L
aL4126L
atp2894
Rp2895
sL2840L
g1
((lp2896
L483L
aL12231L
aL13199L
aL5455L
aL9266L
aL10207L
atp2897
Rp2898
sL1568L
g1
((lp2899
L6401L
aL5146L
aL9733L
aL8638L
atp2900
Rp2901
sL2391L
g1
((lp2902
L7073L
aL6602L
aL12078L
aL4241L
aL8570L
aL1211L
atp2903
Rp2904
sL570L
g1
((lp2905
L2241L
aL5606L
aL3238L
aL4873L
aL2829L
aL4367L
aL9531L
atp2906
Rp2907
sL1785L
g1
((lp2908
L1604L
aL9253L
aL8710L
aL4007L
aL12202L
aL11887L
aL6352L
aL3225L
atp2909
Rp2910
sL2799L
g1
((lp2911
L12897L
aL11207L
aL9420L
aL8784L
aL373L
aL8063L
atp2912
Rp2913
sL2330L
g1
((lp2914
L4383L
aL773L
aL8751L
aL3354L
aL12383L
aL9183L
atp2915
Rp2916
sL797L
g1
((lp2917
L11468L
aL12348L
aL4751L
aL11253L
aL8758L
aL11799L
aL6012L
atp2918
Rp2919
sL2180L
g1
((lp2920
L13312L
aL8935L
aL4968L
aL7850L
aL10735L
aL7159L
aL5982L
atp2921
Rp2922
sL2562L
g1
((lp2923
L2087L
aL11531L
aL7568L
aL12784L
aL3735L
aL8953L
atp2924
Rp2925
sL3276L
g1
((lp2926
L423L
aL6664L
aL3305L
aL7339L
aL8531L
aL2038L
atp2927
Rp2928
sL1065L
g1
((lp2929
L8577L
aL6243L
aL10117L
aL8076L
aL12273L
aL12862L
atp2930
Rp2931
sL2031L
g1
((lp2932
L2432L
aL12577L
aL6914L
aL12740L
aL12741L
aL10348L
aL7565L
aL5164L
aL12340L
aL6879L
atp2933
Rp2934
sL2573L
g1
((lp2935
L9281L
aL6147L
aL7107L
aL715L
aL3276L
aL9586L
aL3315L
atp2936
Rp2937
sL1952L
g1
((lp2938
L2241L
aL7782L
aL13254L
aL10442L
aL11701L
aL3031L
aL7226L
atp2939
Rp2940
sL1753L
g1
((lp2941
L5545L
aL8106L
aL4684L
aL5616L
aL6865L
aL1334L
aL10425L
aL1596L
aL4319L
atp2942
Rp2943
sL1748L
g1
((lp2944
L10594L
aL12834L
aL4325L
aL4454L
aL12903L
aL8552L
aL363L
aL11277L
aL12334L
aL4430L
aL7918L
aL12048L
aL13263L
aL9913L
aL7034L
aL1883L
aL12797L
atp2945
Rp2946
sL2935L
g1
((lp2947
L6251L
aL13039L
aL7732L
aL4126L
aL11805L
aL3614L
atp2948
Rp2949
sL279L
g1
((lp2950
L11680L
aL10081L
aL3266L
aL3723L
aL12462L
atp2951
Rp2952
sL1687L
g1
((lp2953
L642L
aL3304L
aL13039L
aL10288L
aL4126L
aL11805L
aL3614L
atp2954
Rp2955
sL693L
g1
((lp2956
L11233L
aL2433L
aL9281L
aL2561L
aL13320L
aL13263L
atp2957
Rp2958
sL1329L
g1
((lp2959
L9256L
aL7577L
aL5358L
aL5329L
aL6005L
aL863L
aL2455L
aL9881L
aL8827L
aL5567L
atp2960
Rp2961
sL2138L
g1
((lp2962
L13217L
aL1732L
aL104L
aL9743L
aL7505L
aL306L
aL3731L
aL9363L
aL12855L
atp2963
Rp2964
sL2306L
g1
((lp2965
L417L
aL4198L
aL968L
aL12334L
aL10777L
aL4024L
aL8761L
aL1278L
atp2966
Rp2967
sL1301L
g1
((lp2968
L9477L
aL13039L
aL5845L
aL11801L
aL11805L
aL3614L
aL4479L
atp2969
Rp2970
sL3106L
g1
((lp2971
L4417L
aL5157L
aL13135L
aL10259L
aL3827L
aL13371L
atp2972
Rp2973
sL794L
g1
((lp2974
L10113L
aL5475L
aL9603L
aL4461L
aL12525L
aL8468L
atp2975
Rp2976
sL2252L
g1
((lp2977
L8775L
aL1643L
aL1292L
aL7117L
aL8639L
atp2978
Rp2979
sL1840L
g1
((lp2980
L7776L
aL1128L
aL9928L
aL9425L
aL12084L
aL215L
atp2981
Rp2982
sL3048L
g1
((lp2983
L6977L
aL5315L
aL7049L
aL816L
aL12146L
aL11186L
aL1908L
atp2984
Rp2985
sL2384L
g1
((lp2986
L3614L
aL13039L
aL10288L
aL8182L
aL6397L
aL4126L
atp2987
Rp2988
sL2538L
g1
((lp2989
L7270L
aL6950L
aL13352L
aL2252L
aL4024L
aL1629L
aL12222L
atp2990
Rp2991
sL2769L
g1
((lp2992
L3744L
aL5286L
aL6375L
aL10598L
aL7916L
aL12334L
aL1551L
aL87L
atp2993
Rp2994
sL30L
g1
((lp2995
L9446L
aL2374L
aL9128L
aL367L
aL9553L
aL1811L
aL12856L
aL4188L
atp2996
Rp2997
sL3073L
g1
((lp2998
L642L
aL8327L
aL12331L
aL10288L
aL11032L
aL4126L
atp2999
Rp3000
sL987L
g1
((lp3001
L125L
aL7245L
aL8645L
aL1130L
atp3002
Rp3003
sL802L
g1
((lp3004
L6251L
aL13039L
aL10288L
aL4374L
aL10300L
aL4126L
atp3005
Rp3006
sL1742L
g1
((lp3007
L327L
aL1613L
aL12334L
aL4024L
aL10492L
aL1278L
atp3008
Rp3009
sL742L
g1
((lp3010
L4224L
aL7106L
aL12805L
aL715L
aL12524L
aL3820L
aL12050L
aL8179L
aL10518L
atp3011
Rp3012
sL2747L
g1
((lp3013
L9632L
aL6627L
aL11716L
aL6709L
aL3414L
aL6525L
atp3014
Rp3015
sL2230L
g1
((lp3016
L6950L
aL4661L
aL5816L
aL2459L
aL8094L
atp3017
Rp3018
sL2211L
g1
((lp3019
L12704L
aL6338L
aL1768L
aL1611L
aL12334L
aL5806L
aL11440L
aL7891L
aL1108L
aL2005L
aL4024L
aL13240L
aL1054L
atp3020
Rp3021
sL3293L
g1
((lp3022
L7715L
aL7622L
aL679L
aL12493L
aL7023L
aL10612L
atp3023
Rp3024
sL2480L
g1
((lp3025
L11298L
aL7526L
aL8649L
aL6891L
aL11346L
aL5394L
aL3263L
atp3026
Rp3027
sL2507L
g1
((lp3028
L9445L
aL678L
aL5865L
aL8985L
aL13239L
aL4825L
atp3029
Rp3030
sL2338L
g1
((lp3031
L4224L
aL12293L
aL9458L
aL339L
aL9786L
aL11290L
atp3032
Rp3033
sL1816L
g1
((lp3034
L1058L
aL5126L
aL170L
aL2826L
aL5398L
aL3224L
atp3035
Rp3036
sL2284L
g1
((lp3037
L6214L
aL11436L
aL9325L
aL1172L
aL11515L
aL124L
aL1759L
atp3038
Rp3039
sL228L
g1
((lp3040
L5189L
aL167L
aL9033L
aL11275L
aL1020L
aL12334L
aL6128L
aL13148L
atp3041
Rp3042
sL282L
g1
((lp3043
L11805L
aL6251L
aL13039L
aL7570L
aL11801L
aL12701L
aL3614L
atp3044
Rp3045
sL312L
g1
((lp3046
L5409L
aL4706L
aL7587L
aL9057L
aL8697L
aL3573L
aL11895L
aL11928L
aL8286L
aL7291L
aL5596L
aL2654L
aL10367L
atp3047
Rp3048
sL68L
g1
((lp3049
L7436L
aL13039L
aL12949L
aL413L
aL4126L
aL11805L
aL3614L
atp3050
Rp3051
sL787L
g1
((lp3052
L9281L
aL6344L
aL3691L
aL12759L
aL3577L
aL2299L
atp3053
Rp3054
sL851L
g1
((lp3055
L1568L
aL12480L
aL8866L
aL2852L
aL1862L
aL8811L
aL4220L
aL1074L
aL1843L
aL2198L
aL3927L
aL10651L
aL444L
atp3056
Rp3057
sL1398L
g1
((lp3058
L7493L
aL147L
aL10454L
aL9239L
aL3544L
aL4287L
atp3059
Rp3060
sL2763L
g1
((lp3061
L12568L
aL2500L
aL3973L
aL10187L
aL8846L
aL7154L
aL2902L
aL4024L
atp3062
Rp3063
sL2451L
g1
((lp3064
L2469L
aL5321L
aL3818L
aL1259L
aL587L
aL1962L
aL8558L
aL7247L
aL2926L
aL2031L
aL3699L
aL11097L
aL2393L
aL5370L
aL3931L
atp3065
Rp3066
sL1456L
g1
((lp3067
L417L
aL4198L
aL5938L
aL12532L
aL1817L
aL13240L
aL10777L
aL12059L
aL2844L
atp3068
Rp3069
sL2339L
g1
((lp3070
L3461L
aL2252L
aL2478L
aL12334L
aL4024L
aL4568L
aL11391L
atp3071
Rp3072
sL3009L
g1
((lp3073
L737L
aL10693L
aL1066L
aL2221L
aL2394L
aL3487L
atp3074
Rp3075
sL1690L
g1
((lp3076
L13090L
aL12068L
aL1446L
aL6407L
aL9672L
aL9775L
aL3540L
atp3077
Rp3078
sL2571L
g1
((lp3079
L2432L
aL12386L
aL931L
aL10348L
aL1229L
aL5806L
aL12334L
aL3509L
aL12982L
aL8152L
aL11608L
aL11225L
aL3741L
aL1278L
atp3080
Rp3081
sL2102L
g1
((lp3082
L3328L
aL10144L
aL4642L
aL11234L
aL3780L
aL2053L
aL2118L
aL1321L
aL4333L
aL1710L
aL3762L
aL7411L
aL7315L
aL6515L
aL1046L
atp3083
Rp3084
sL1044L
g1
((lp3085
L12325L
aL4265L
aL4140L
aL7960L
aL4052L
aL698L
aL2490L
aL8925L
atp3086
Rp3087
sL1718L
g1
((lp3088
L8855L
aL4751L
aL11253L
aL8215L
aL4828L
aL2559L
atp3089
Rp3090
sL1359L
g1
((lp3091
L1924L
aL9094L
aL11399L
aL7048L
aL12681L
aL2824L
aL8204L
aL8205L
aL272L
aL13075L
aL7062L
aL10526L
aL8991L
aL12708L
aL11691L
aL1709L
aL563L
aL5686L
aL7735L
aL8248L
aL9785L
aL2109L
aL1866L
aL2767L
aL3028L
aL3174L
aL2278L
aL4207L
atp3092
Rp3093
sL1074L
g1
((lp3094
L2561L
aL3973L
aL13254L
aL4873L
aL1742L
aL11215L
aL10801L
aL7154L
aL185L
atp3095
Rp3096
sL136L
g1
((lp3097
L6912L
aL9799L
aL1276L
aL5658L
aL11004L
aL5373L
atp3098
Rp3099
sL3327L
g1
((lp3100
L9154L
aL361L
aL5275L
aL755L
aL9594L
aL3291L
atp3101
Rp3102
sL3159L
g1
((lp3103
L13039L
aL10288L
aL5845L
aL4126L
aL6938L
aL3614L
atp3104
Rp3105
sL1266L
g1
((lp3106
L97L
aL2497L
aL10313L
aL8787L
aL13367L
aL3484L
atp3107
Rp3108
sL3290L
g1
((lp3109
L12938L
aL5822L
aL4751L
aL10964L
aL2045L
aL9310L
atp3110
Rp3111
sL2444L
g1
((lp3112
L4873L
aL11306L
aL13038L
aL11215L
aL7984L
aL2478L
aL12334L
aL6094L
aL4024L
aL4216L
aL10683L
aL1375L
atp3113
Rp3114
sL2118L
g1
((lp3115
L2278L
aL11399L
aL11655L
aL9164L
aL4207L
aL11126L
atp3116
Rp3117
sL2694L
g1
((lp3118
L11788L
aL12334L
aL13137L
aL4024L
aL3421L
aL1278L
atp3119
Rp3120
sL2159L
g1
((lp3121
L4544L
aL1538L
aL11790L
aL10290L
aL4116L
aL7292L
atp3122
Rp3123
sL323L
g1
((lp3124
L6242L
aL4039L
aL4329L
aL8844L
aL3925L
aL4535L
aL12472L
aL10045L
atp3125
Rp3126
sL233L
g1
((lp3127
L10016L
aL11745L
aL12645L
aL1033L
aL2169L
aL6139L
atp3128
Rp3129
sL2115L
g1
((lp3130
L13039L
aL10288L
aL12949L
aL4126L
aL11805L
aL3614L
atp3131
Rp3132
sL625L
g1
((lp3133
L9477L
aL13039L
aL10288L
aL12949L
aL413L
aL4126L
atp3134
Rp3135
sL2206L
g1
((lp3136
L1546L
aL6540L
aL2959L
aL6558L
aL1441L
aL1957L
aL5287L
aL4013L
aL5935L
aL2356L
aL2741L
aL7352L
aL4027L
aL2237L
aL11457L
aL8515L
aL5063L
aL3786L
aL11262L
aL4439L
aL8414L
aL5612L
aL4592L
aL10232L
aL9850L
aL8062L
atp3137
Rp3138
sL2215L
g1
((lp3139
L5506L
aL9221L
aL1872L
aL1460L
aL4885L
aL6838L
atp3140
Rp3141
sL3071L
g1
((lp3142
L11074L
aL12903L
aL10887L
aL5387L
aL5708L
aL11983L
aL12595L
atp3143
Rp3144
sL1350L
g1
((lp3145
L9287L
aL13039L
aL413L
aL4126L
aL4479L
atp3146
Rp3147
sL3120L
g1
((lp3148
L10561L
aL3973L
aL5606L
aL4873L
aL2351L
aL11215L
aL7154L
aL2963L
aL12443L
atp3149
Rp3150
sL1030L
g1
((lp3151
L5537L
aL12742L
aL2056L
aL9426L
aL11926L
aL11677L
atp3152
Rp3153
sL521L
g1
((lp3154
L13039L
aL7570L
aL5845L
aL11801L
aL12701L
aL3614L
atp3155
Rp3156
sL1754L
g1
((lp3157
L12000L
aL7489L
aL4384L
aL3046L
aL11565L
aL1727L
atp3158
Rp3159
sL1028L
g1
((lp3160
L13313L
aL13284L
aL10086L
aL1576L
aL3273L
aL3880L
aL12394L
aL10763L
aL1391L
aL1135L
aL12725L
aL5493L
aL1271L
aL4597L
aL8953L
aL1658L
aL7131L
aL3997L
atp3161
Rp3162
sL1861L
g1
((lp3163
L10561L
aL3973L
aL4873L
aL11215L
aL6865L
aL7154L
aL1658L
atp3164
Rp3165
sL456L
g1
((lp3166
L8451L
aL11253L
aL8855L
aL2745L
aL4988L
aL12285L
aL2559L
atp3167
Rp3168
sL1733L
g1
((lp3169
L1572L
aL11562L
aL7667L
aL9108L
aL2203L
atp3170
Rp3171
sL1116L
g1
((lp3172
L8544L
aL7536L
aL10867L
aL7865L
aL1658L
aL1115L
aL7837L
atp3173
Rp3174
sL2777L
g1
((lp3175
L9885L
aL4104L
aL1994L
aL5679L
aL12116L
aL3349L
aL12635L
aL7709L
atp3176
Rp3177
sL2110L
g1
((lp3178
L10182L
aL10959L
aL2931L
aL756L
aL762L
aL12477L
atp3179
Rp3180
sL838L
g1
((lp3181
L3399L
aL3758L
aL1360L
aL2450L
aL7829L
aL118L
atp3182
Rp3183
sL1022L
g1
((lp3184
L6251L
aL11057L
aL12949L
aL4374L
aL6397L
aL4126L
atp3185
Rp3186
sL143L
g1
((lp3187
L2241L
aL9058L
aL3973L
aL5606L
aL1447L
aL4167L
aL4782L
aL11215L
aL3509L
aL4731L
atp3188
Rp3189
sL880L
g1
((lp3190
L3495L
aL7020L
aL12336L
aL9013L
aL3673L
aL4541L
atp3191
Rp3192
sL1161L
g1
((lp3193
L5154L
aL2179L
aL3917L
aL13200L
aL11095L
aL1529L
atp3194
Rp3195
sL641L
g1
((lp3196
L3614L
aL6251L
aL13039L
aL6106L
aL6397L
aL4126L
atp3197
Rp3198
sL2448L
g1
((lp3199
L9281L
aL9409L
aL1731L
aL339L
aL3577L
aL2687L
atp3200
Rp3201
sL3138L
g1
((lp3202
L10151L
aL12876L
aL10385L
aL2513L
aL12307L
atp3203
Rp3204
sL254L
g1
((lp3205
L3304L
aL13039L
aL10288L
aL2873L
aL6938L
aL4126L
atp3206
Rp3207
sL1293L
g1
((lp3208
L6244L
aL518L
aL8362L
aL8010L
aL753L
aL9724L
atp3209
Rp3210
sL3128L
g1
((lp3211
L3973L
aL3208L
aL4873L
aL2699L
aL12334L
aL7439L
aL13264L
aL6865L
aL7154L
aL11215L
aL5806L
aL12759L
aL1278L
atp3212
Rp3213
sL1314L
g1
((lp3214
L8994L
aL12845L
aL8813L
aL10748L
aL1918L
atp3215
Rp3216
sL672L
g1
((lp3217
L12992L
aL7009L
aL7556L
aL6950L
aL2478L
aL12334L
atp3218
Rp3219
sL316L
g1
((lp3220
L3428L
aL8327L
aL1096L
aL12331L
aL6251L
aL3417L
atp3221
Rp3222
sL628L
g1
((lp3223
L417L
aL2564L
aL3109L
aL1419L
aL343L
aL13240L
aL10777L
aL3549L
atp3224
Rp3225
sL2997L
g1
((lp3226
L3621L
aL12942L
aL10865L
aL6098L
aL8755L
aL12021L
aL8758L
atp3227
Rp3228
sL867L
g1
((lp3229
L11651L
aL621L
aL9872L
aL4530L
aL854L
aL3579L
atp3230
Rp3231
sL2380L
g1
((lp3232
L8714L
aL12334L
aL5616L
aL3509L
aL10425L
aL4319L
atp3233
Rp3234
sL2535L
g1
((lp3235
L12334L
aL4024L
aL13240L
aL1817L
aL4381L
aL1054L
atp3236
Rp3237
sL2217L
g1
((lp3238
L7782L
aL13254L
aL4873L
aL11L
aL1742L
aL400L
aL7154L
aL11349L
aL2903L
atp3239
Rp3240
sL633L
g1
((lp3241
L5957L
aL1576L
aL12944L
aL1778L
aL7353L
aL1658L
atp3242
Rp3243
sL1938L
g1
((lp3244
L11416L
aL6185L
aL3360L
aL7542L
atp3245
Rp3246
sL2231L
g1
((lp3247
L4834L
aL6851L
aL2946L
aL2248L
aL3535L
aL12113L
aL11508L
aL7737L
atp3248
Rp3249
sL764L
g1
((lp3250
L8327L
aL6221L
aL5494L
aL7799L
aL11032L
aL4094L
atp3251
Rp3252
sL3117L
g1
((lp3253
L12334L
aL784L
aL11473L
aL11122L
aL4024L
aL2298L
aL5403L
aL1278L
atp3254
Rp3255
sL2970L
g1
((lp3256
L2115L
aL13191L
aL8554L
aL9966L
aL9071L
aL4692L
aL894L
atp3257
Rp3258
sL460L
g1
((lp3259
L13039L
aL10288L
aL5845L
aL12949L
aL11801L
aL11805L
aL3614L
aL4479L
atp3260
Rp3261
sL2832L
g1
((lp3262
L9993L
aL5615L
aL11411L
aL4854L
aL1271L
aL6680L
aL9598L
atp3263
Rp3264
sL2182L
g1
((lp3265
L2241L
aL3973L
aL8521L
aL8043L
aL11215L
aL5403L
aL572L
atp3266
Rp3267
sL1809L
g1
((lp3268
L8544L
aL12832L
aL1571L
aL8550L
aL8139L
aL3438L
aL2834L
atp3269
Rp3270
sL3357L
g1
((lp3271
L6251L
aL13039L
aL7570L
aL6397L
aL12701L
aL4126L
atp3272
Rp3273
sL80L
g1
((lp3274
L6403L
aL6071L
aL698L
aL7452L
aL8925L
aL5535L
atp3275
Rp3276
sL2701L
g1
((lp3277
L3054L
aL13359L
aL1619L
aL8403L
aL8757L
aL319L
atp3278
Rp3279
sL1680L
g1
((lp3280
L11585L
aL3592L
aL1230L
aL10966L
aL11926L
aL5055L
atp3281
Rp3282
sL60L
g1
((lp3283
L935L
aL3304L
aL10378L
aL7436L
aL7437L
aL13039L
aL7732L
aL4852L
aL8023L
aL11801L
atp3284
Rp3285
sL2594L
g1
((lp3286
L13255L
aL6344L
aL10760L
aL10671L
aL9713L
aL3577L
atp3287
Rp3288
sL2671L
g1
((lp3289
L11808L
aL6950L
aL2252L
aL13228L
aL12334L
aL2478L
aL4024L
atp3290
Rp3291
sL569L
g1
((lp3292
L8192L
aL736L
aL10918L
aL5806L
aL7059L
aL3509L
aL3031L
aL1080L
atp3293
Rp3294
sL593L
g1
((lp3295
L3973L
aL4873L
aL8846L
aL11215L
aL1041L
aL7154L
aL4024L
atp3296
Rp3297
sL425L
g1
((lp3298
L2529L
aL3208L
aL5806L
aL12334L
aL13264L
aL3509L
aL1278L
atp3299
Rp3300
sL1255L
g1
((lp3301
L576L
aL4583L
aL6509L
aL9203L
aL5688L
aL2075L
atp3302
Rp3303
sL2986L
g1
((lp3304
L10081L
aL6854L
aL7402L
aL12462L
aL7983L
aL1433L
atp3305
Rp3306
sL670L
g1
((lp3307
L9281L
aL7178L
aL11374L
aL13263L
aL7803L
aL9151L
atp3308
Rp3309
sL1844L
g1
((lp3310
L10082L
aL11368L
aL11433L
aL13197L
aL3341L
aL10865L
aL3382L
atp3311
Rp3312
sL2588L
g1
((lp3313
L3141L
aL3335L
aL6319L
aL6135L
aL8570L
aL8509L
atp3314
Rp3315
sL155L
g1
((lp3316
L3360L
aL4708L
aL13165L
aL3535L
aL8082L
aL11166L
atp3317
Rp3318
sL277L
g1
((lp3319
L4483L
aL4776L
aL13039L
aL10288L
aL6397L
aL4126L
atp3320
Rp3321
sL1549L
g1
((lp3322
L2978L
aL4302L
aL10901L
aL12377L
aL7771L
aL2940L
atp3323
Rp3324
sL1164L
g1
((lp3325
L1L
aL6345L
aL10543L
aL12699L
aL11771L
atp3326
Rp3327
sL718L
g1
((lp3328
L3297L
aL12810L
aL3026L
aL12370L
aL6811L
aL10943L
atp3329
Rp3330
sL2337L
g1
((lp3331
L5888L
aL2850L
aL12233L
aL8330L
aL12522L
aL8913L
aL13171L
aL4757L
aL12758L
aL7927L
aL314L
aL59L
aL2715L
atp3332
Rp3333
sL620L
g1
((lp3334
L1250L
aL11302L
aL715L
aL3276L
aL9999L
aL241L
aL8343L
atp3335
Rp3336
sL3082L
g1
((lp3337
L7174L
aL10599L
aL2855L
aL7373L
aL12367L
aL4820L
atp3338
Rp3339
sL3141L
g1
((lp3340
L9991L
aL7146L
aL9546L
aL6477L
aL6992L
aL8891L
atp3341
Rp3342
sL3007L
g1
((lp3343
L10112L
aL2531L
aL6740L
aL567L
aL793L
aL7997L
atp3344
Rp3345
sL2228L
g1
((lp3346
L1057L
aL325L
aL11047L
aL13192L
aL5514L
aL1068L
aL1813L
atp3347
Rp3348
sL657L
g1
((lp3349
L9832L
aL1576L
aL11917L
aL4083L
aL6133L
aL7837L
atp3350
Rp3351
sL189L
g1
((lp3352
L6243L
aL7431L
aL9198L
aL3856L
aL11891L
aL12212L
aL11928L
atp3353
Rp3354
sL3090L
g1
((lp3355
L7837L
aL4234L
aL8014L
aL111L
aL13044L
aL13400L
aL8957L
aL11134L
aL2623L
atp3356
Rp3357
sL381L
g1
((lp3358
L8544L
aL2635L
aL12341L
aL11290L
aL7837L
aL1374L
atp3359
Rp3360
sL2753L
g1
((lp3361
L10532L
aL12394L
aL11979L
aL6993L
aL209L
aL5493L
aL2073L
atp3362
Rp3363
sL3033L
g1
((lp3364
L4224L
aL2560L
aL7713L
aL10471L
aL1735L
aL2505L
aL3847L
aL6439L
aL10611L
aL11507L
aL10165L
aL2454L
aL3351L
aL669L
aL2687L
atp3365
Rp3366
sL1219L
g1
((lp3367
L11780L
aL3973L
aL13254L
aL8846L
aL7154L
aL2902L
atp3368
Rp3369
sL3015L
g1
((lp3370
L7178L
aL3577L
aL815L
aL10289L
aL8917L
aL7513L
atp3371
Rp3372
sL2120L
g1
((lp3373
L8960L
aL3461L
aL3493L
aL6950L
aL3917L
aL13016L
atp3374
Rp3375
sL3389L
g1
((lp3376
L6212L
aL3917L
aL6158L
aL6671L
aL2513L
aL10385L
aL13311L
atp3377
Rp3378
sL1725L
g1
((lp3379
L13281L
aL8714L
aL8012L
aL3509L
aL1658L
aL1758L
atp3380
Rp3381
sL2422L
g1
((lp3382
L2736L
aL2441L
aL971L
aL2351L
atp3383
Rp3384
sL646L
g1
((lp3385
L13153L
aL13124L
aL10635L
aL11770L
aL10271L
atp3386
Rp3387
sL2136L
g1
((lp3388
L4298L
aL3531L
aL4751L
aL8215L
aL10037L
aL8855L
aL4988L
aL2559L
atp3389
Rp3390
sL1501L
g1
((lp3391
L1032L
aL10358L
aL4595L
aL12086L
atp3392
Rp3393
sL1364L
g1
((lp3394
L258L
aL4614L
aL5417L
aL3626L
aL1423L
aL7760L
aL4246L
aL2173L
atp3395
Rp3396
sL988L
g1
((lp3397
L6276L
aL9669L
aL12078L
aL13363L
aL8570L
aL1211L
atp3398
Rp3399
sL2168L
g1
((lp3400
L7232L
aL6756L
aL4759L
aL8459L
aL11794L
aL9750L
aL11287L
aL10230L
atp3401
Rp3402
sL1677L
g1
((lp3403
L12832L
aL9281L
aL9711L
aL9488L
aL7536L
aL7615L
atp3404
Rp3405
sL353L
g1
((lp3406
L6595L
aL4744L
aL11053L
aL8564L
aL6935L
aL8984L
aL10494L
atp3407
Rp3408
sL159L
g1
((lp3409
L4385L
aL4931L
aL11468L
aL4751L
aL11253L
aL8855L
aL4988L
aL9533L
atp3410
Rp3411
sL2868L
g1
((lp3412
L5729L
aL6659L
aL2664L
aL2061L
aL2893L
aL11292L
atp3413
Rp3414
sL3291L
g1
((lp3415
L4897L
aL2697L
aL7338L
aL972L
aL2380L
aL5277L
atp3416
Rp3417
sL2155L
g1
((lp3418
L6342L
aL11471L
aL11188L
aL6135L
aL729L
aL8570L
atp3419
Rp3420
sL2301L
g1
((lp3421
L9027L
aL4357L
aL13232L
aL9149L
aL9342L
atp3422
Rp3423
sL2716L
g1
((lp3424
L4033L
aL9089L
aL11656L
aL10795L
aL12334L
aL11473L
aL11122L
aL12861L
aL1278L
atp3425
Rp3426
sL2551L
g1
((lp3427
L4929L
aL8132L
aL12709L
aL2509L
aL12975L
aL9887L
aL8091L
aL7196L
aL13247L
atp3428
Rp3429
sL54L
g1
((lp3430
L2604L
aL1135L
aL11796L
aL10934L
aL217L
aL6202L
atp3431
Rp3432
sL1512L
g1
((lp3433
L3973L
aL4873L
aL12334L
aL11215L
aL7154L
aL4024L
atp3434
Rp3435
sL2771L
g1
((lp3436
L2274L
aL7844L
aL2830L
aL7507L
aL11797L
aL5400L
atp3437
Rp3438
sL907L
g1
((lp3439
L8996L
aL9676L
aL4814L
aL9232L
aL2549L
aL315L
aL2365L
atp3440
Rp3441
sL2655L
g1
((lp3442
L6816L
aL13324L
aL10865L
aL12820L
aL2713L
atp3443
Rp3444
sL1450L
g1
((lp3445
L7424L
aL3621L
aL5190L
aL229L
aL12942L
aL8758L
aL6778L
aL12863L
atp3446
Rp3447
sL2162L
g1
((lp3448
L7424L
aL3621L
aL5190L
aL12942L
aL6778L
aL12863L
atp3449
Rp3450
sL386L
g1
((lp3451
L3304L
aL13039L
aL10288L
aL7570L
aL6397L
aL4126L
atp3452
Rp3453
sL1000L
g1
((lp3454
L13039L
aL7570L
aL8023L
aL11801L
aL6397L
aL12701L
atp3455
Rp3456
sL3215L
g1
((lp3457
L10788L
aL4141L
aL5717L
aL6325L
aL2845L
atp3458
Rp3459
sL2705L
g1
((lp3460
L13095L
aL7720L
aL4521L
aL1069L
aL6702L
aL3250L
aL8631L
atp3461
Rp3462
sL2814L
g1
((lp3463
L12672L
aL10240L
aL397L
aL10646L
aL5655L
aL2718L
aL3106L
aL1580L
aL13360L
aL7088L
aL10548L
aL5302L
aL4280L
aL6584L
aL2127L
aL10838L
aL10199L
aL10721L
aL6243L
aL2792L
aL10476L
aL6257L
aL5115L
atp3464
Rp3465
sL2950L
g1
((lp3466
L5768L
aL238L
aL8626L
aL19L
aL6293L
aL7039L
atp3467
Rp3468
sL3237L
g1
((lp3469
L6012L
aL12348L
aL6816L
aL8758L
atp3470
Rp3471
sL550L
g1
((lp3472
L3777L
aL9282L
aL2546L
aL4693L
aL4024L
aL10175L
atp3473
Rp3474
sL1773L
g1
((lp3475
L3882L
aL4426L
aL2252L
aL12334L
aL2478L
aL9942L
atp3476
Rp3477
sL2638L
g1
((lp3478
L5092L
aL6605L
aL8526L
aL4274L
aL10322L
aL1278L
atp3479
Rp3480
sL25L
g1
((lp3481
L704L
aL5625L
aL7858L
aL990L
atp3482
Rp3483
sL357L
g1
((lp3484
L3614L
aL13039L
aL10288L
aL11410L
aL11417L
aL6938L
aL11805L
aL4126L
atp3485
Rp3486
sL2271L
g1
((lp3487
L9537L
aL4933L
aL9965L
aL4437L
aL5178L
atp3488
Rp3489
sL2459L
g1
((lp3490
L2924L
aL7565L
aL176L
aL594L
aL410L
aL10750L
atp3491
Rp3492
sL2620L
g1
((lp3493
L4024L
aL9167L
aL4260L
aL6535L
atp3494
Rp3495
sL555L
g1
((lp3496
L9281L
aL12545L
aL13255L
aL11979L
aL8917L
aL10206L
atp3497
Rp3498
sL344L
g1
((lp3499
L3461L
aL5510L
aL9547L
aL2961L
aL11999L
atp3500
Rp3501
sL719L
g1
((lp3502
L6208L
aL6725L
aL9130L
aL7723L
aL1107L
aL13172L
aL5878L
aL12318L
atp3503
Rp3504
sL330L
g1
((lp3505
L5923L
aL7685L
aL5253L
aL3177L
aL9323L
aL626L
aL210L
atp3506
Rp3507
sL2L
g1
((lp3508
L4224L
aL774L
aL5991L
aL6734L
aL7377L
aL5493L
atp3509
Rp3510
sL1788L
g1
((lp3511
L13056L
aL4547L
aL13251L
aL12421L
aL4197L
aL649L
aL5293L
aL5390L
aL4718L
aL8667L
atp3512
Rp3513
sL2896L
g1
((lp3514
L11306L
aL2252L
aL3950L
aL2478L
aL12334L
aL4024L
aL1278L
aL11391L
atp3515
Rp3516
sL1114L
g1
((lp3517
L9669L
aL8570L
aL4437L
aL12662L
aL5562L
aL10783L
atp3518
Rp3519
sL1277L
g1
((lp3520
L7941L
aL8855L
aL4298L
aL2319L
aL8628L
aL8215L
aL2559L
atp3521
Rp3522
sL2527L
g1
((lp3523
L8714L
aL7439L
aL5616L
aL6865L
aL10641L
aL2800L
aL4319L
atp3524
Rp3525
sL1662L
g1
((lp3526
L6373L
aL4233L
aL11957L
aL3702L
aL10809L
aL11835L
atp3527
Rp3528
sL726L
g1
((lp3529
L1497L
aL12630L
aL10870L
aL10249L
atp3530
Rp3531
sL1086L
g1
((lp3532
L9477L
aL13039L
aL656L
aL12949L
aL11801L
aL413L
atp3533
Rp3534
sL245L
g1
((lp3535
L8000L
aL3905L
aL3554L
aL7349L
aL1177L
atp3536
Rp3537
sL309L
g1
((lp3538
L4873L
aL8846L
aL11215L
aL12334L
aL10777L
aL6299L
aL1278L
atp3539
Rp3540
sL3275L
g1
((lp3541
L9760L
aL3944L
aL1132L
aL10318L
aL9038L
aL6159L
aL10641L
aL3410L
aL5716L
atp3542
Rp3543
sL1256L
g1
((lp3544
L3424L
aL358L
aL584L
aL6729L
aL12013L
aL1147L
atp3545
Rp3546
sL124L
g1
((lp3547
L4838L
aL4489L
aL10666L
aL8783L
aL7250L
aL1524L
atp3548
Rp3549
sL1498L
g1
((lp3550
L3049L
aL12620L
aL13236L
aL10294L
aL535L
aL7101L
atp3551
Rp3552
sL2441L
g1
((lp3553
L6816L
aL2371L
aL3621L
aL11468L
aL10317L
aL8758L
atp3554
Rp3555
sL1110L
g1
((lp3556
L3614L
aL13039L
aL10288L
aL12949L
aL12701L
aL4126L
atp3557
Rp3558
sL2295L
g1
((lp3559
L12224L
aL11944L
aL10696L
aL5203L
aL9976L
aL11740L
aL9468L
atp3560
Rp3561
sL3013L
g1
((lp3562
L4483L
aL13039L
aL656L
aL7570L
aL11801L
aL12701L
atp3563
Rp3564
sL3227L
g1
((lp3565
L13091L
aL4261L
aL4517L
aL1191L
aL9933L
aL6928L
aL1529L
aL3646L
atp3566
Rp3567
sL2131L
g1
((lp3568
L13019L
aL6378L
aL6413L
aL7984L
aL6865L
aL7124L
aL10676L
aL2043L
aL5438L
atp3569
Rp3570
sL2759L
g1
((lp3571
L2241L
aL3973L
aL1262L
aL11215L
aL4367L
aL12852L
aL572L
aL7837L
atp3572
Rp3573
sL1066L
g1
((lp3574
L384L
aL3010L
aL7691L
aL11788L
aL3602L
aL3988L
atp3575
Rp3576
sL3121L
g1
((lp3577
L7847L
aL12071L
aL4617L
aL557L
aL1521L
aL8442L
aL1244L
aL2494L
atp3578
Rp3579
sL2493L
g1
((lp3580
L1696L
aL416L
aL10118L
aL11625L
aL13036L
aL2802L
aL13394L
aL3036L
aL5278L
atp3581
Rp3582
sL854L
g1
((lp3583
L11780L
aL9445L
aL3942L
aL3239L
aL4873L
aL10776L
aL8846L
aL6542L
aL1752L
aL7154L
aL4216L
aL9182L
atp3584
Rp3585
sL1787L
g1
((lp3586
L2337L
aL5283L
aL10852L
aL4007L
aL6442L
aL12202L
aL10291L
aL11476L
aL10677L
aL3862L
aL6231L
aL10966L
aL10396L
aL8127L
atp3587
Rp3588
sL429L
g1
((lp3589
L7041L
aL6506L
aL6671L
aL10385L
aL12307L
aL13239L
atp3590
Rp3591
sL1434L
g1
((lp3592
L6816L
aL5486L
aL6098L
aL8755L
aL8276L
aL8758L
aL12348L
atp3593
Rp3594
sL2087L
g1
((lp3595
L5472L
aL4641L
aL8266L
aL8555L
aL1496L
aL12121L
aL10106L
aL3676L
atp3596
Rp3597
sL1202L
g1
((lp3598
L8352L
aL10945L
aL5380L
aL4198L
aL12334L
aL13240L
aL6041L
atp3599
Rp3600
sL2099L
g1
((lp3601
L9287L
aL3614L
aL13039L
aL10288L
aL7570L
aL12949L
aL4126L
atp3602
Rp3603
sL2696L
g1
((lp3604
L9217L
aL9284L
aL6251L
aL3948L
aL3471L
aL13039L
aL4541L
aL4126L
aL10303L
atp3605
Rp3606
sL3151L
g1
((lp3607
L5019L
aL10374L
aL2771L
aL1045L
aL12629L
aL6971L
atp3608
Rp3609
sL2048L
g1
((lp3610
L864L
aL6148L
aL12805L
aL3854L
aL9104L
aL1658L
aL12855L
aL11606L
aL6906L
aL3103L
atp3611
Rp3612
sL3012L
g1
((lp3613
L12901L
aL4169L
aL13006L
aL3249L
aL9204L
aL9241L
aL1690L
atp3614
Rp3615
sL1324L
g1
((lp3616
L1034L
aL10317L
aL8276L
aL12021L
aL8758L
aL9533L
atp3617
Rp3618
sL103L
g1
((lp3619
L9378L
aL6982L
aL11691L
aL6513L
aL9755L
aL8764L
atp3620
Rp3621
sL3261L
g1
((lp3622
L544L
aL3618L
aL2982L
aL3478L
aL3096L
aL8316L
atp3623
Rp3624
sL1263L
g1
((lp3625
L4160L
aL386L
aL2787L
aL7429L
aL5397L
aL5180L
aL5823L
atp3626
Rp3627
sL1584L
g1
((lp3628
L6816L
aL802L
aL6098L
aL8276L
aL8758L
aL12348L
atp3629
Rp3630
sL283L
g1
((lp3631
L5251L
aL4745L
aL2704L
aL8404L
aL12470L
aL4024L
atp3632
Rp3633
sL513L
g1
((lp3634
L12104L
aL1196L
aL5229L
aL6924L
aL12751L
aL4405L
aL2102L
aL6268L
atp3635
Rp3636
sL1563L
g1
((lp3637
L12296L
aL7482L
aL11153L
aL6264L
aL12762L
aL4575L
atp3638
Rp3639
sL2392L
g1
((lp3640
L3618L
aL5731L
aL9445L
aL10649L
aL4156L
aL862L
atp3641
Rp3642
sL2577L
g1
((lp3643
L11714L
aL12202L
aL7114L
aL8110L
aL11506L
aL7991L
atp3644
Rp3645
sL2193L
g1
((lp3646
L4131L
aL12903L
aL5576L
aL5703L
aL4948L
aL7860L
aL8858L
atp3647
Rp3648
sL64L
g1
((lp3649
L642L
aL6251L
aL11032L
aL6938L
aL4126L
atp3650
Rp3651
sL2719L
g1
((lp3652
L12640L
aL12545L
aL1667L
aL4647L
aL7178L
aL2640L
atp3653
Rp3654
sL1904L
g1
((lp3655
L6816L
aL4931L
aL7365L
aL11468L
aL8276L
aL8855L
atp3656
Rp3657
sL16L
g1
((lp3658
L6914L
aL12903L
aL12013L
aL12334L
aL1278L
aL6879L
atp3659
Rp3660
sL2596L
g1
((lp3661
L2252L
aL12334L
aL2478L
aL4693L
aL4024L
aL11391L
atp3662
Rp3663
sL3093L
g1
((lp3664
L2689L
aL10531L
aL1252L
aL11013L
aL6425L
aL11916L
aL8337L
aL6642L
aL11927L
aL6649L
aL5530L
aL1469L
atp3665
Rp3666
sL2530L
g1
((lp3667
L3043L
aL1255L
aL104L
aL3031L
aL5493L
aL4247L
atp3668
Rp3669
sL659L
g1
((lp3670
L11367L
aL9287L
aL13039L
aL10288L
aL7570L
aL7732L
aL12701L
aL4126L
atp3671
Rp3672
sL1004L
g1
((lp3673
L13160L
aL3802L
aL4668L
aL751L
atp3674
Rp3675
sL1792L
g1
((lp3676
L1350L
aL13039L
aL10288L
aL7570L
aL11508L
aL12949L
aL4126L
atp3677
Rp3678
sL2973L
g1
((lp3679
L11805L
aL9287L
aL3614L
aL13039L
aL10288L
aL7570L
aL2873L
aL12701L
aL4126L
aL4479L
atp3680
Rp3681
sL3331L
g1
((lp3682
L6830L
aL13039L
aL823L
aL11801L
aL6397L
aL4126L
aL4479L
atp3683
Rp3684
sL2826L
g1
((lp3685
L2594L
aL10020L
aL8689L
aL7226L
aL7838L
aL223L
atp3686
Rp3687
sL48L
g1
((lp3688
L8258L
aL2467L
aL2791L
aL10671L
aL1041L
aL1270L
aL1271L
atp3689
Rp3690
sL206L
g1
((lp3691
L4153L
aL4005L
aL4263L
aL3848L
aL5127L
aL12168L
aL10731L
aL5257L
aL7887L
aL11601L
aL7730L
aL11798L
aL11353L
aL5466L
aL5851L
aL2047L
atp3692
Rp3693
sL3196L
g1
((lp3694
L7234L
aL2533L
aL2248L
aL8361L
aL4010L
aL9657L
aL13039L
aL5108L
aL7737L
aL1307L
atp3695
Rp3696
sL2302L
g1
((lp3697
L8067L
aL10376L
aL10798L
aL1679L
aL8887L
aL6521L
atp3698
Rp3699
sL876L
g1
((lp3700
L1251L
aL4265L
aL495L
aL4209L
aL12849L
aL4030L
aL3478L
aL4537L
aL2298L
aL10939L
aL9629L
aL830L
atp3701
Rp3702
sL1793L
g1
((lp3703
L7107L
aL6918L
aL13255L
aL10760L
aL6316L
aL442L
atp3704
Rp3705
sL102L
g1
((lp3706
L9413L
aL9669L
aL10503L
aL12078L
aL13363L
aL8569L
atp3707
Rp3708
sL2659L
g1
((lp3709
L898L
aL3751L
aL1612L
aL3917L
aL2190L
aL83L
aL4051L
aL4318L
atp3710
Rp3711
sL3160L
g1
((lp3712
L2177L
aL492L
aL4628L
aL9509L
atp3713
Rp3714
sL2601L
g1
((lp3715
L2432L
aL112L
aL6870L
aL3449L
aL2970L
aL9854L
atp3716
Rp3717
sL1414L
g1
((lp3718
L2662L
aL13255L
aL10760L
aL3273L
aL5871L
aL1168L
aL12755L
atp3719
Rp3720
sL242L
g1
((lp3721
L8327L
aL712L
aL1096L
aL12331L
aL8085L
aL4374L
atp3722
Rp3723
sL2566L
g1
((lp3724
L9287L
aL3304L
aL13039L
aL7570L
aL10938L
aL4126L
atp3725
Rp3726
sL2290L
g1
((lp3727
L7747L
aL3301L
aL11174L
aL11758L
aL10545L
aL6036L
atp3728
Rp3729
sL1008L
g1
((lp3730
L13217L
aL11290L
aL12805L
aL12855L
aL8917L
aL8343L
aL5882L
atp3731
Rp3732
sL642L
g1
((lp3733
L9287L
aL6251L
aL13039L
aL7570L
aL7513L
aL4126L
atp3734
Rp3735
sL361L
g1
((lp3736
L6853L
aL9318L
aL12103L
aL13104L
aL7830L
aL2909L
atp3737
Rp3738
sL1740L
g1
((lp3739
L12996L
aL3493L
aL4622L
aL9170L
aL11602L
aL6748L
aL4958L
atp3740
Rp3741
sL20L
g1
((lp3742
L417L
aL1315L
aL5604L
aL10777L
aL12603L
atp3743
Rp3744
sL2348L
g1
((lp3745
L996L
aL11475L
aL4409L
aL8506L
aL8731L
aL2716L
aL3005L
atp3746
Rp3747
sL713L
g1
((lp3748
L10307L
aL5092L
aL6820L
aL12334L
aL3379L
aL10745L
aL11324L
aL1278L
atp3749
Rp3750
sL699L
g1
((lp3751
L6946L
aL13059L
aL3273L
aL8652L
aL3276L
aL9944L
aL3888L
aL12944L
aL11127L
aL6136L
atp3752
Rp3753
sL2347L
g1
((lp3754
L5927L
aL10635L
aL12411L
aL1114L
aL11355L
aL895L
atp3755
Rp3756
sL1911L
g1
((lp3757
L6628L
aL11979L
aL2253L
aL3026L
aL7218L
aL6930L
atp3758
Rp3759
sL889L
g1
((lp3760
L13122L
aL9829L
aL9459L
aL3830L
aL154L
aL13407L
atp3761
Rp3762
sL1689L
g1
((lp3763
L12641L
aL2387L
aL7832L
aL7642L
aL6107L
aL3357L
atp3764
Rp3765
sL1472L
g1
((lp3766
L4288L
aL7119L
aL1906L
aL5780L
aL3962L
aL7484L
atp3767
Rp3768
sL1139L
g1
((lp3769
L3461L
aL6950L
aL12334L
aL2478L
aL12956L
aL8094L
atp3770
Rp3771
sL617L
g1
((lp3772
L5665L
aL7330L
aL12771L
aL3311L
aL10096L
aL11951L
aL8957L
atp3773
Rp3774
sL190L
g1
((lp3775
L3622L
aL10750L
aL7565L
aL12526L
aL6189L
aL5681L
aL12307L
aL3283L
aL1719L
aL2174L
atp3776
Rp3777
sL982L
g1
((lp3778
L7417L
aL2716L
aL11233L
aL3031L
atp3779
Rp3780
sL746L
g1
((lp3781
L643L
aL11785L
aL8366L
aL2864L
aL9429L
aL12223L
atp3782
Rp3783
sL2151L
g1
((lp3784
L1041L
aL5641L
aL2558L
aL11591L
atp3785
Rp3786
sL114L
g1
((lp3787
L4708L
aL2854L
aL9227L
aL5838L
aL3535L
aL3924L
atp3788
Rp3789
sL2513L
g1
((lp3790
L8256L
aL11618L
aL12426L
aL3668L
aL12540L
aL9885L
atp3791
Rp3792
sL1534L
g1
((lp3793
L2404L
aL11306L
aL2252L
aL8750L
aL12334L
aL2478L
aL4024L
aL11391L
atp3794
Rp3795
sL839L
g1
((lp3796
L8544L
aL12777L
aL13263L
aL4367L
aL1782L
aL2909L
atp3797
Rp3798
sL1826L
g1
((lp3799
L6950L
aL6504L
aL10602L
aL12334L
aL8431L
aL4024L
aL5563L
atp3800
Rp3801
sL799L
g1
((lp3802
L3201L
aL11970L
aL10L
aL9912L
aL9882L
aL7390L
atp3803
Rp3804
sL2487L
g1
((lp3805
L5155L
aL9379L
aL4166L
aL10090L
aL7985L
aL7545L
atp3806
Rp3807
sL679L
g1
((lp3808
L3201L
aL6914L
aL472L
aL1077L
aL11991L
aL11128L
atp3809
Rp3810
sL1805L
g1
((lp3811
L4128L
aL11649L
aL7427L
aL1841L
aL476L
aL158L
atp3812
Rp3813
sL2088L
g1
((lp3814
L448L
aL1700L
aL1035L
aL9004L
aL4758L
aL11286L
atp3815
Rp3816
sL2019L
g1
((lp3817
L9287L
aL3304L
aL13039L
aL10288L
aL7732L
aL12949L
aL4126L
aL10841L
aL3614L
atp3818
Rp3819
sL1729L
g1
((lp3820
L7570L
aL413L
aL11805L
aL13039L
atp3821
Rp3822
sL2268L
g1
((lp3823
L3585L
aL5881L
aL4248L
aL5785L
aL10138L
aL13373L
atp3824
Rp3825
sL468L
g1
((lp3826
L7713L
aL10947L
aL2982L
aL2505L
aL8917L
aL2687L
atp3827
Rp3828
sL2008L
g1
((lp3829
L9287L
aL13039L
aL10288L
aL6938L
aL413L
aL4126L
aL4479L
atp3830
Rp3831
sL2461L
g1
((lp3832
L13120L
aL10850L
aL8583L
aL5808L
aL8374L
aL7870L
atp3833
Rp3834
sL317L
g1
((lp3835
L12738L
aL10504L
aL2418L
aL11923L
aL8573L
aL2078L
atp3836
Rp3837
sL288L
g1
((lp3838
L9474L
aL3653L
aL12934L
aL6377L
aL9364L
aL6361L
atp3839
Rp3840
sL1435L
g1
((lp3841
L10529L
aL10403L
aL11203L
aL10249L
aL4140L
aL6232L
aL2490L
atp3842
Rp3843
sL2322L
g1
((lp3844
L2875L
aL6914L
aL10086L
aL11241L
aL5484L
aL5614L
aL12334L
aL7568L
aL12530L
aL13268L
aL9622L
aL2135L
aL6904L
aL3007L
aL13370L
aL6395L
aL6879L
atp3845
Rp3846
sL1034L
g1
((lp3847
L9287L
aL6251L
aL13039L
aL7570L
aL2873L
aL11801L
aL12701L
aL702L
atp3848
Rp3849
sL27L
g1
((lp3850
L9152L
aL3945L
aL9449L
aL77L
aL4398L
aL4478L
atp3851
Rp3852
sL830L
g1
((lp3853
L10432L
aL8224L
aL12042L
aL10120L
atp3854
Rp3855
sL3362L
g1
((lp3856
L9217L
aL12034L
aL8327L
aL11151L
aL7440L
aL4374L
aL11032L
aL12331L
aL9006L
aL11057L
aL10300L
aL10303L
aL9153L
aL9284L
aL1096L
aL89L
aL11356L
aL3428L
aL6251L
aL3948L
aL9837L
aL3957L
atp3857
Rp3858
sL404L
g1
((lp3859
L12000L
aL2821L
aL6537L
aL236L
aL10738L
atp3860
Rp3861
sL2362L
g1
((lp3862
L7683L
aL6647L
aL9831L
aL13107L
aL10999L
aL11067L
atp3863
Rp3864
sL1906L
g1
((lp3865
L2571L
aL2252L
aL12334L
aL3950L
aL2478L
aL4024L
aL1787L
aL1278L
aL11391L
atp3866
Rp3867
sL935L
g1
((lp3868
L4643L
aL9669L
aL3594L
aL12660L
aL12671L
atp3869
Rp3870
sL2515L
g1
((lp3871
L4165L
aL8846L
aL12334L
aL7984L
aL598L
aL12059L
atp3872
Rp3873
sL647L
g1
((lp3874
L10368L
aL2211L
aL9923L
aL3943L
aL13224L
aL3277L
aL6481L
aL9457L
aL4849L
aL3638L
aL2838L
aL2362L
aL5436L
aL957L
aL6942L
atp3875
Rp3876
sL545L
g1
((lp3877
L6703L
aL6995L
aL6166L
aL3550L
aL11775L
atp3878
Rp3879
sL1012L
g1
((lp3880
L10114L
aL11973L
aL12234L
aL10157L
aL3772L
aL12957L
atp3881
Rp3882
sL97L
g1
((lp3883
L1313L
aL9218L
aL1379L
aL8772L
aL10692L
aL11912L
aL2894L
aL1934L
aL144L
aL4787L
aL5908L
aL2519L
atp3884
Rp3885
sL1693L
g1
((lp3886
L7655L
aL4873L
aL10572L
aL2351L
aL5493L
aL10815L
atp3887
Rp3888
sL527L
g1
((lp3889
L10048L
aL5606L
aL8714L
aL10191L
aL5616L
aL3509L
aL12278L
aL12759L
aL7896L
aL5022L
atp3890
Rp3891
sL2297L
g1
((lp3892
L5443L
aL10663L
aL330L
aL4843L
aL10583L
aL10814L
atp3893
Rp3894
sL1136L
g1
((lp3895
L8257L
aL7837L
aL8730L
aL1683L
aL5493L
aL1658L
aL6813L
atp3896
Rp3897
sL1246L
g1
((lp3898
L12931L
aL5188L
aL10825L
aL4014L
aL4211L
aL11613L
atp3899
Rp3900
sL801L
g1
((lp3901
L12800L
aL4483L
aL3304L
aL10378L
aL7436L
aL13039L
aL10288L
aL7570L
aL4126L
aL11805L
aL12701L
atp3902
Rp3903
sL564L
g1
((lp3904
L10153L
aL4202L
aL12810L
aL11052L
aL11849L
aL3026L
aL3031L
aL1079L
aL10622L
atp3905
Rp3906
sL2296L
g1
((lp3907
L8707L
aL7633L
aL10770L
aL7641L
aL6426L
aL2011L
atp3908
Rp3909
sL1634L
g1
((lp3910
L4867L
aL12805L
aL6831L
aL13207L
aL8339L
aL3031L
atp3911
Rp3912
sL3192L
g1
((lp3913
L12000L
aL10434L
aL4165L
aL8808L
aL5493L
atp3914
Rp3915
sL273L
g1
((lp3916
L6241L
aL994L
aL6883L
aL9669L
aL10088L
aL9641L
aL3753L
aL6319L
aL8916L
aL1781L
aL11191L
aL8280L
aL8569L
aL5723L
aL12671L
atp3917
Rp3918
sL3180L
g1
((lp3919
L5385L
aL2506L
aL12459L
aL2478L
aL12334L
aL4024L
aL8923L
atp3920
Rp3921
sL2923L
g1
((lp3922
L7297L
aL5955L
aL4167L
aL1447L
aL5616L
aL6865L
aL572L
atp3923
Rp3924
sL749L
g1
((lp3925
L4480L
aL4194L
aL6407L
aL12941L
aL7286L
aL4054L
atp3926
Rp3927
sL2881L
g1
((lp3928
L10754L
aL6928L
aL8886L
aL12824L
aL5081L
aL2653L
atp3929
Rp3930
sL2622L
g1
((lp3931
L6016L
aL323L
aL2252L
aL8526L
aL2478L
aL3950L
aL12334L
aL11391L
atp3932
Rp3933
sL2113L
g1
((lp3934
L3363L
aL5134L
aL12111L
aL10517L
aL5975L
aL11453L
atp3935
Rp3936
sL815L
g1
((lp3937
L3614L
aL13039L
aL5845L
aL11805L
aL4126L
aL4479L
atp3938
Rp3939
sL145L
g1
((lp3940
L2084L
aL3208L
aL12810L
aL5867L
aL5806L
aL7156L
aL12508L
atp3941
Rp3942
sL752L
g1
((lp3943
L6397L
aL6251L
aL7570L
aL11801L
aL6106L
aL12701L
atp3944
Rp3945
sL1361L
g1
((lp3946
L4165L
aL12487L
aL11565L
aL10832L
aL8186L
aL10267L
atp3947
Rp3948
sL1557L
g1
((lp3949
L12000L
aL11424L
aL10560L
aL7715L
aL5380L
aL4864L
aL71L
aL7826L
aL2390L
aL791L
aL1400L
aL1110L
aL7446L
aL7423L
atp3950
Rp3951
sL1493L
g1
((lp3952
L10560L
aL9281L
aL10760L
aL6858L
aL5493L
aL3031L
aL9148L
aL5597L
atp3953
Rp3954
sL1726L
g1
((lp3955
L7424L
aL4931L
aL11468L
aL12942L
aL10865L
aL8758L
aL8855L
aL8317L
atp3956
Rp3957
sL262L
g1
((lp3958
L962L
aL3811L
aL4882L
aL8692L
aL2293L
aL1398L
aL5560L
atp3959
Rp3960
sL3296L
g1
((lp3961
L8228L
aL1899L
aL2703L
aL5010L
aL6363L
aL2366L
aL12063L
atp3962
Rp3963
sL2324L
g1
((lp3964
L8544L
aL8260L
aL8917L
aL1782L
aL281L
atp3965
Rp3966
sL696L
g1
((lp3967
L9281L
aL6339L
aL13255L
aL339L
aL3577L
aL7806L
atp3968
Rp3969
sL121L
g1
((lp3970
L5120L
aL642L
aL8327L
aL12331L
aL13039L
aL10288L
aL4126L
atp3971
Rp3972
sL350L
g1
((lp3973
L9701L
aL5543L
aL13064L
aL13259L
aL1868L
aL10076L
aL958L
atp3974
Rp3975
sL2244L
g1
((lp3976
L9281L
aL4906L
aL11820L
aL9151L
aL9439L
atp3977
Rp3978
sL1230L
g1
((lp3979
L7267L
aL2252L
aL1300L
aL6198L
aL1686L
aL11391L
atp3980
Rp3981
sL3144L
g1
((lp3982
L7180L
aL5143L
aL7456L
aL4269L
aL5553L
aL7861L
aL7490L
aL1219L
aL6223L
aL4689L
aL1753L
aL1503L
aL10848L
aL100L
aL3817L
aL8556L
aL6510L
aL6511L
aL7796L
aL123L
aL1023L
atp3983
Rp3984
sL1063L
g1
((lp3985
L9483L
aL10068L
aL12085L
aL12095L
atp3986
Rp3987
sL1112L
g1
((lp3988
L4069L
aL4167L
aL3337L
aL75L
aL3282L
aL5493L
atp3989
Rp3990
sL1929L
g1
((lp3991
L642L
aL11805L
aL3304L
aL13039L
aL10288L
aL7570L
aL7732L
aL12701L
aL4126L
atp3992
Rp3993
sL2240L
g1
((lp3994
L12007L
aL3656L
aL7720L
aL7786L
aL13195L
aL2317L
aL12429L
aL4015L
aL10576L
aL8247L
aL12312L
aL11295L
atp3995
Rp3996
sL1586L
g1
((lp3997
L230L
aL3951L
aL10419L
aL1844L
aL12885L
aL7130L
atp3998
Rp3999
sL3194L
g1
((lp4000
L10275L
aL7523L
aL9669L
aL3141L
aL10068L
aL1012L
atp4001
Rp4002
sL2778L
g1
((lp4003
L8003L
aL9190L
aL7399L
aL5064L
aL297L
aL3157L
aL11477L
aL11544L
aL7774L
atp4004
Rp4005
sL2394L
g1
((lp4006
L7235L
aL9285L
aL2152L
aL3496L
aL11496L
aL13387L
aL6814L
aL5552L
aL4465L
aL7252L
aL7990L
aL6103L
aL8696L
aL90L
aL10363L
aL7548L
aL1501L
aL12638L
atp4007
Rp4008
sL187L
g1
((lp4009
L8163L
aL9414L
aL10860L
aL5298L
aL6162L
aL3922L
atp4010
Rp4011
sL3023L
g1
((lp4012
L4568L
aL5385L
aL11850L
aL2315L
aL2252L
aL5870L
aL12334L
aL2478L
aL10773L
aL4024L
aL7416L
aL11391L
atp4013
Rp4014
sL274L
g1
((lp4015
L5222L
aL938L
aL10348L
aL13297L
aL2970L
aL8955L
atp4016
Rp4017
sL1081L
g1
((lp4018
L6121L
aL9165L
aL1075L
aL1395L
aL4762L
atp4019
Rp4020
sL2999L
g1
((lp4021
L992L
aL6372L
aL5317L
aL8810L
aL4043L
aL5292L
aL12460L
aL8044L
aL3823L
aL6419L
aL7060L
aL4053L
aL11319L
aL4376L
aL10842L
aL5499L
aL10014L
aL2591L
atp4022
Rp4023
sL2471L
g1
((lp4024
L6819L
aL4740L
aL13092L
aL13138L
aL8786L
aL767L
atp4025
Rp4026
sL1300L
g1
((lp4027
L10976L
aL3575L
aL12644L
aL12343L
atp4028
Rp4029
sL2648L
g1
((lp4030
L9985L
aL9223L
aL331L
aL10224L
aL4861L
aL7839L
atp4031
Rp4032
sL1618L
g1
((lp4033
L4931L
aL3621L
aL11468L
aL4751L
aL8755L
aL8276L
atp4034
Rp4035
sL110L
g1
((lp4036
L1380L
aL9355L
aL6381L
aL3416L
aL730L
aL9727L
atp4037
Rp4038
sL1386L
g1
((lp4039
L10533L
aL9362L
aL5589L
aL9785L
aL3836L
aL10591L
atp4040
Rp4041
sL2167L
g1
((lp4042
L8804L
aL6948L
aL12202L
aL3883L
aL7275L
aL8013L
atp4043
Rp4044
sL2453L
g1
((lp4045
L9287L
aL13039L
aL413L
aL11801L
aL11805L
aL3614L
atp4046
Rp4047
sL2846L
g1
((lp4048
L192L
aL10249L
aL5268L
aL3156L
aL7894L
aL6394L
aL11741L
atp4049
Rp4050
sL923L
g1
((lp4051
L7939L
aL4075L
aL6156L
aL9550L
aL9264L
aL5311L
atp4052
Rp4053
sL3094L
g1
((lp4054
L3428L
aL8327L
aL3627L
aL12331L
aL6893L
aL4281L
atp4055
Rp4056
sL1572L
g1
((lp4057
L8395L
aL2991L
aL5909L
aL5493L
aL10040L
aL9786L
atp4058
Rp4059
sL2904L
g1
((lp4060
L10249L
aL11306L
aL12334L
aL12622L
aL8750L
aL374L
aL4024L
atp4061
Rp4062
sL3225L
g1
((lp4063
L7845L
aL7303L
aL1928L
aL2987L
aL2573L
aL5037L
aL10510L
aL3407L
aL11442L
aL8051L
aL9749L
aL1887L
atp4064
Rp4065
sL1910L
g1
((lp4066
L1925L
aL10991L
aL8624L
aL8852L
aL4344L
aL11929L
atp4067
Rp4068
sL2224L
g1
((lp4069
L7424L
aL5190L
aL12942L
aL10865L
aL6098L
aL8758L
aL8924L
atp4070
Rp4071
sL2074L
g1
((lp4072
L4224L
aL388L
aL9734L
aL5997L
aL3085L
aL4783L
aL4702L
atp4073
Rp4074
sL3169L
g1
((lp4075
L11424L
aL5189L
aL6791L
aL6535L
aL2252L
aL5005L
aL12334L
aL2478L
aL11473L
aL4024L
aL2969L
aL5533L
aL1278L
atp4076
Rp4077
sL2111L
g1
((lp4078
L417L
aL3973L
aL12334L
aL11215L
aL7154L
aL4024L
atp4079
Rp4080
sL1292L
g1
((lp4081
L642L
aL3304L
aL13039L
aL10288L
aL6397L
aL4126L
atp4082
Rp4083
sL2071L
g1
((lp4084
L9472L
aL4612L
aL2056L
aL9738L
aL13329L
aL4498L
aL8211L
aL11926L
aL11677L
aL2724L
aL13093L
aL4007L
aL11303L
aL3373L
aL4270L
aL13369L
aL5055L
aL13248L
aL11585L
aL3015L
aL2124L
aL7629L
aL5326L
aL590L
aL205L
aL9426L
aL9951L
aL3173L
aL5611L
aL7019L
aL4589L
aL497L
aL3827L
aL8310L
aL2807L
aL8829L
aL10239L
atp4085
Rp4086
sL113L
g1
((lp4087
L9669L
aL8998L
aL11495L
aL1965L
aL11150L
aL10128L
aL7923L
aL12984L
aL8570L
atp4088
Rp4089
sL1876L
g1
((lp4090
L4227L
aL510L
aL12935L
aL9225L
aL10122L
aL3859L
aL4884L
aL1557L
aL10263L
aL12184L
aL3608L
aL10010L
aL9242L
aL1306L
aL1947L
aL407L
aL3359L
aL8480L
aL4000L
aL12195L
aL5156L
aL10021L
aL12837L
aL5795L
aL424L
aL8489L
aL8490L
aL11947L
aL8108L
aL9647L
aL4400L
aL4656L
aL8369L
aL4273L
aL2228L
aL10928L
aL3380L
aL12209L
aL4280L
aL12087L
aL11318L
aL3128L
aL7228L
aL11967L
aL10690L
aL13381L
aL1478L
aL1991L
aL6086L
aL1354L
aL9675L
aL2125L
aL3661L
aL6617L
aL10585L
aL7387L
aL4186L
aL11357L
aL13021L
aL9824L
aL7575L
aL11620L
aL2792L
aL13161L
aL4203L
aL5356L
aL10476L
aL11499L
aL12909L
aL5361L
aL2929L
aL9075L
aL9205L
aL7798L
aL10874L
aL11518L
atp4091
Rp4092
sL948L
g1
((lp4093
L7170L
aL4872L
aL7848L
aL7149L
aL12400L
aL5372L
atp4094
Rp4095
sL722L
g1
((lp4096
L8681L
aL4265L
aL6666L
aL13393L
aL3317L
aL3062L
aL2037L
atp4097
Rp4098
sL1316L
g1
((lp4099
L6218L
aL11791L
aL4754L
aL12344L
aL3257L
aL11294L
atp4100
Rp4101
sL2413L
g1
((lp4102
L4695L
aL7400L
aL4650L
aL9463L
aL9336L
aL12478L
atp4103
Rp4104
sL2405L
g1
((lp4105
L6272L
aL4068L
aL10028L
aL2189L
aL8304L
aL6004L
aL10073L
atp4106
Rp4107
sL341L
g1
((lp4108
L6149L
aL6027L
aL3821L
aL13301L
aL10621L
aL6141L
aL10622L
atp4109
Rp4110
sL2404L
g1
((lp4111
L2272L
aL11717L
aL9734L
aL7305L
aL11822L
aL2798L
aL5230L
aL148L
aL13177L
aL12893L
aL5183L
atp4112
Rp4113
sL692L
g1
((lp4114
L5385L
aL2252L
aL12334L
aL2478L
aL4024L
aL11391L
atp4115
Rp4116
sL2644L
g1
((lp4117
L8613L
aL12713L
aL13358L
aL8628L
aL11253L
aL8855L
aL4988L
aL2559L
atp4118
Rp4119
sL930L
g1
((lp4120
L6860L
aL4526L
aL5653L
aL2709L
aL2686L
atp4121
Rp4122
sL1307L
g1
((lp4123
L6817L
aL2321L
aL3801L
aL7355L
aL6557L
aL13119L
atp4124
Rp4125
sL1544L
g1
((lp4126
L8675L
aL8855L
aL3531L
aL4751L
aL8215L
aL2559L
atp4127
Rp4128
sL1387L
g1
((lp4129
L12334L
aL2478L
aL5493L
aL5174L
aL4633L
aL5373L
atp4130
Rp4131
sL1530L
g1
((lp4132
L1184L
aL13415L
aL11149L
aL10864L
aL3187L
aL13049L
aL5661L
atp4133
Rp4134
sL1932L
g1
((lp4135
L2023L
aL4552L
aL10023L
aL7503L
aL638L
aL12735L
atp4136
Rp4137
sL890L
g1
((lp4138
L1248L
aL10171L
aL4051L
aL9973L
aL4087L
aL7195L
atp4139
Rp4140
sL772L
g1
((lp4141
L1952L
aL3685L
aL5189L
aL4494L
aL8889L
aL1020L
aL12349L
atp4142
Rp4143
sL32L
g1
((lp4144
L11996L
aL12388L
aL7959L
aL3245L
aL3728L
aL13173L
aL9526L
aL9303L
aL2332L
aL8345L
aL3932L
aL30L
atp4145
Rp4146
sL827L
g1
((lp4147
L5952L
aL9346L
aL4739L
aL7812L
aL7433L
aL10699L
aL10383L
aL6416L
aL4763L
aL4659L
aL5495L
aL12728L
aL4059L
aL7740L
aL8575L
atp4148
Rp4149
sL2797L
g1
((lp4150
L7907L
aL7333L
aL6803L
aL10388L
aL3258L
aL2428L
atp4151
Rp4152
sL1842L
g1
((lp4153
L9287L
aL10378L
aL6251L
aL13039L
aL3614L
aL11167L
atp4154
Rp4155
sL1328L
g1
((lp4156
L3688L
aL1033L
aL9901L
aL9055L
aL10910L
aL8991L
atp4157
Rp4158
sL2779L
g1
((lp4159
L7841L
aL4648L
aL2633L
aL395L
aL1067L
aL8910L
aL10772L
aL888L
atp4160
Rp4161
sL3145L
g1
((lp4162
L3339L
aL9754L
aL5534L
aL5670L
aL8487L
aL6440L
aL6828L
aL1209L
aL8895L
aL7746L
aL13125L
aL840L
aL3022L
aL4690L
aL4822L
aL7908L
aL5352L
aL6505L
aL1008L
aL3441L
aL13298L
atp4163
Rp4164
sL540L
g1
((lp4165
L8714L
aL12493L
aL5806L
aL12334L
aL3509L
aL1278L
atp4166
Rp4167
sL3167L
g1
((lp4168
L11216L
aL3764L
aL9014L
aL7674L
aL6396L
aL6366L
atp4169
Rp4170
sL1229L
g1
((lp4171
L10178L
aL9699L
aL4964L
aL9602L
aL6170L
aL5607L
aL8170L
aL491L
aL11211L
aL12171L
aL13294L
aL1455L
aL623L
aL1494L
aL11576L
aL5405L
aL9947L
aL220L
aL9693L
aL9400L
atp4172
Rp4173
sL945L
g1
((lp4174
L9828L
aL5965L
aL7762L
aL10195L
aL8052L
aL7253L
atp4175
Rp4176
sL1977L
g1
((lp4177
L8422L
aL2839L
aL8846L
aL13008L
aL5623L
aL5916L
atp4178
Rp4179
sL2483L
g1
((lp4180
L8327L
aL1096L
aL12331L
aL2350L
aL7440L
aL11032L
atp4181
Rp4182
sL3110L
g1
((lp4183
L3614L
aL13039L
aL10288L
aL12949L
aL11805L
aL4126L
aL4479L
atp4184
Rp4185
sL796L
g1
((lp4186
L2594L
aL6339L
aL8080L
aL7536L
aL5207L
aL7837L
atp4187
Rp4188
sL2130L
g1
((lp4189
L5091L
aL1417L
aL10879L
aL632L
aL10360L
aL7871L
atp4190
Rp4191
sL960L
g1
((lp4192
L5857L
aL5666L
aL417L
aL8193L
aL5226L
aL10777L
aL13240L
aL1817L
atp4193
Rp4194
sL2830L
g1
((lp4195
L11817L
aL12427L
aL6990L
aL6544L
aL12790L
aL8376L
atp4196
Rp4197
sL958L
g1
((lp4198
L4931L
aL8675L
aL3621L
aL10317L
aL12348L
aL8924L
aL9533L
atp4199
Rp4200
sL3055L
g1
((lp4201
L9281L
aL12805L
aL1745L
aL8179L
aL12855L
aL3577L
atp4202
Rp4203
sL3175L
g1
((lp4204
L13039L
aL7570L
aL12949L
aL10841L
aL12701L
aL4126L
atp4205
Rp4206
sL543L
g1
((lp4207
L7937L
aL2754L
aL7304L
aL6547L
aL7994L
aL10427L
atp4208
Rp4209
sL1522L
g1
((lp4210
L5665L
aL7330L
aL3997L
aL6865L
aL5493L
aL13400L
aL1658L
aL7837L
atp4211
Rp4212
sL977L
g1
((lp4213
L8033L
aL9925L
aL966L
aL3079L
aL478L
aL3209L
aL8393L
aL12363L
aL2636L
aL3021L
aL11757L
aL5041L
aL12433L
aL10228L
aL1146L
aL7962L
aL8958L
aL5471L
atp4214
Rp4215
sL2469L
g1
((lp4216
L8544L
aL10406L
aL13263L
aL7536L
aL10801L
aL2687L
atp4217
Rp4218
sL3077L
g1
((lp4219
L9953L
aL6535L
aL11309L
aL12334L
aL3122L
aL8086L
aL727L
aL1278L
atp4220
Rp4221
sL2531L
g1
((lp4222
L6276L
aL9669L
aL13287L
aL11438L
aL1781L
aL8088L
atp4223
Rp4224
sL3273L
g1
((lp4225
L2408L
aL2252L
aL12334L
aL2478L
aL8979L
aL4024L
atp4226
Rp4227
sL1035L
g1
((lp4228
L10464L
aL3717L
aL12167L
aL269L
aL282L
aL1788L
atp4229
Rp4230
sL515L
g1
((lp4231
L3614L
aL7436L
aL13039L
aL12949L
aL4126L
aL11801L
aL11805L
aL413L
atp4232
Rp4233
sL1735L
g1
((lp4234
L4224L
aL9281L
aL9120L
aL8615L
aL80L
aL1081L
aL1883L
atp4235
Rp4236
sL1951L
g1
((lp4237
L197L
aL11567L
aL9136L
aL6199L
aL10391L
aL7325L
atp4238
Rp4239
sL1957L
g1
((lp4240
L13028L
aL11684L
aL12423L
aL455L
aL7690L
aL12654L
aL4560L
aL10967L
aL728L
atp4241
Rp4242
sL1839L
g1
((lp4243
L11534L
aL4817L
aL12434L
aL2779L
aL2876L
aL5374L
atp4244
Rp4245
sL2512L
g1
((lp4246
L266L
aL1550L
aL12855L
aL7513L
aL3452L
aL10622L
atp4247
Rp4248
sL165L
g1
((lp4249
L4931L
aL1028L
aL2344L
aL11726L
aL4751L
aL11253L
aL3190L
aL8855L
aL10390L
atp4250
Rp4251
sL2184L
g1
((lp4252
L2252L
aL4972L
aL12334L
aL2478L
aL4024L
aL1278L
atp4253
Rp4254
sL2024L
g1
((lp4255
L1171L
aL11220L
aL6869L
aL11766L
aL7705L
aL5791L
atp4256
Rp4257
sL803L
g1
((lp4258
L10336L
aL6532L
aL7626L
aL6254L
aL7696L
aL8382L
atp4259
Rp4260
sL2743L
g1
((lp4261
L7300L
aL2150L
aL647L
aL4584L
aL12952L
aL2196L
aL5464L
atp4262
Rp4263
sL1750L
g1
((lp4264
L10819L
aL7238L
aL7565L
aL1332L
aL7389L
aL13311L
atp4265
Rp4266
sL328L
g1
((lp4267
L7073L
aL35L
aL9669L
aL12078L
aL13363L
aL11191L
aL8569L
aL1211L
atp4268
Rp4269
sL1173L
g1
((lp4270
L4510L
aL8568L
aL4202L
aL1488L
aL2943L
aL10296L
aL11194L
aL8635L
aL9244L
aL10206L
aL6879L
atp4271
Rp4272
sL204L
g1
((lp4273
L1574L
aL9671L
aL10056L
aL4262L
aL5420L
aL12878L
aL4111L
aL2672L
aL4784L
aL113L
aL8114L
aL12980L
aL917L
aL5582L
aL5012L
aL9497L
aL11738L
aL5276L
aL12446L
aL4351L
atp4274
Rp4275
sL1660L
g1
((lp4276
L3143L
aL2252L
aL10796L
aL12334L
aL2478L
aL4024L
aL11391L
atp4277
Rp4278
sL303L
g1
((lp4279
L1890L
aL11430L
aL1480L
aL3567L
aL4982L
aL13143L
atp4280
Rp4281
sL776L
g1
((lp4282
L7271L
aL12780L
aL10637L
aL11605L
aL2232L
aL8891L
aL9790L
atp4283
Rp4284
sL2613L
g1
((lp4285
L8352L
aL9411L
aL13240L
aL10777L
aL3771L
aL4381L
atp4286
Rp4287
sL1276L
g1
((lp4288
L3461L
aL6950L
aL10249L
aL12334L
aL9070L
aL4024L
aL8155L
atp4289
Rp4290
sL1486L
g1
((lp4291
L2241L
aL4367L
aL13400L
aL1658L
aL2267L
aL3997L
atp4292
Rp4293
sL913L
g1
((lp4294
L394L
aL11128L
aL6747L
aL12060L
aL5149L
aL5214L
atp4295
Rp4296
sL2564L
g1
((lp4297
L3973L
aL1742L
aL7154L
aL10578L
aL6427L
aL11134L
atp4298
Rp4299
sL3149L
g1
((lp4300
L12294L
aL10087L
aL10248L
aL4810L
aL12082L
aL3159L
aL10041L
atp4301
Rp4302
sL1894L
g1
((lp4303
L12997L
aL8584L
aL2639L
aL2449L
aL3543L
aL5690L
atp4304
Rp4305
sL1131L
g1
((lp4306
L12513L
aL8290L
aL12026L
aL11984L
aL8401L
aL5650L
aL11670L
aL2327L
aL4534L
aL2937L
aL11130L
aL1853L
atp4307
Rp4308
sL1421L
g1
((lp4309
L2594L
aL10345L
aL2705L
aL11314L
aL691L
aL6299L
aL3133L
atp4310
Rp4311
sL81L
g1
((lp4312
L9856L
aL5125L
aL13350L
aL776L
aL13074L
aL3669L
aL9404L
atp4313
Rp4314
sL1128L
g1
((lp4315
L6470L
aL2534L
aL10696L
aL11953L
aL5817L
aL4348L
aL159L
atp4316
Rp4317
sL3346L
g1
((lp4318
L12033L
aL12522L
aL9675L
aL1162L
aL11318L
aL4952L
atp4319
Rp4320
sL595L
g1
((lp4321
L12068L
aL11018L
aL6926L
aL3540L
aL3738L
aL3546L
atp4322
Rp4323
sL2345L
g1
((lp4324
L10403L
aL4291L
aL6885L
aL12618L
aL4140L
aL10455L
aL10676L
aL6807L
aL6232L
aL2490L
aL6876L
aL3997L
atp4325
Rp4326
sL2580L
g1
((lp4327
L8385L
aL9797L
aL10662L
aL8718L
aL8146L
aL6490L
aL10043L
aL5789L
atp4328
Rp4329
sL1577L
g1
((lp4330
L3614L
aL13039L
aL10288L
aL7732L
aL12949L
aL11805L
aL4126L
aL4479L
atp4331
Rp4332
sL2847L
g1
((lp4333
L9281L
aL9713L
aL11063L
aL7803L
aL7806L
aL3615L
atp4334
Rp4335
sL1592L
g1
((lp4336
L5992L
aL3273L
aL2224L
aL1271L
aL536L
aL7131L
atp4337
Rp4338
sL1367L
g1
((lp4339
L7653L
aL3621L
aL11468L
aL11253L
aL8855L
aL9533L
atp4340
Rp4341
sL760L
g1
((lp4342
L12100L
aL3335L
aL8530L
aL1781L
aL3865L
aL8509L
atp4343
Rp4344
sL2266L
g1
((lp4345
L3329L
aL6340L
aL5414L
aL4334L
aL3415L
aL4442L
atp4346
Rp4347
sL781L
g1
((lp4348
L11008L
aL153L
aL7157L
aL9567L
atp4349
Rp4350
sL335L
g1
((lp4351
L6976L
aL7424L
aL10980L
aL6217L
aL1242L
aL9533L
atp4352
Rp4353
sL1106L
g1
((lp4354
L12420L
aL1829L
aL7686L
aL4361L
aL335L
aL12953L
aL12606L
atp4355
Rp4356
sL2568L
g1
((lp4357
L9217L
aL9153L
aL8327L
aL12331L
aL6251L
aL13039L
aL89L
aL10300L
atp4358
Rp4359
sL3217L
g1
((lp4360
L9161L
aL8779L
aL4959L
aL4791L
atp4361
Rp4362
sL2702L
g1
((lp4363
L417L
aL3973L
aL4873L
aL11215L
aL7154L
aL10139L
aL4991L
atp4364
Rp4365
sL216L
g1
((lp4366
L12865L
aL2477L
aL11662L
aL9041L
aL9881L
aL7964L
atp4367
Rp4368
sL3098L
g1
((lp4369
L8800L
aL11301L
aL12199L
aL8967L
aL263L
aL9293L
aL2446L
aL5777L
aL6066L
aL12051L
aL7413L
aL8213L
aL9557L
aL10075L
atp4370
Rp4371
sL2351L
g1
((lp4372
L10624L
aL10786L
aL9731L
aL162L
aL11672L
aL11590L
aL10472L
aL11500L
aL10268L
aL9037L
aL4688L
aL13234L
aL7699L
aL11124L
aL12572L
aL7864L
aL10265L
aL5308L
atp4373
Rp4374
sL1448L
g1
((lp4375
L12000L
aL6017L
aL2658L
aL13283L
aL3973L
aL4167L
aL8744L
aL6667L
aL11290L
aL8092L
atp4376
Rp4377
sL2281L
g1
((lp4378
L5057L
aL579L
aL12682L
aL5680L
aL11802L
aL1213L
atp4379
Rp4380
sL985L
g1
((lp4381
L1443L
aL6251L
aL13039L
aL7570L
aL4126L
aL4479L
atp4382
Rp4383
sL505L
g1
((lp4384
L6251L
aL13039L
aL5845L
aL4126L
aL413L
aL3614L
atp4385
Rp4386
sL1194L
g1
((lp4387
L2249L
aL5876L
aL8917L
aL11447L
aL9528L
aL12059L
atp4388
Rp4389
sL1696L
g1
((lp4390
L896L
aL2183L
aL8625L
aL6578L
aL7032L
aL13370L
aL2943L
atp4391
Rp4392
sL1851L
g1
((lp4393
L8160L
aL6247L
aL6319L
aL466L
aL13363L
aL4437L
atp4394
Rp4395
sL1224L
g1
((lp4396
L11459L
aL1577L
aL3053L
aL6800L
aL3057L
aL7446L
aL1950L
atp4397
Rp4398
sL378L
g1
((lp4399
L10597L
aL11177L
aL1449L
aL8140L
aL10735L
aL7159L
atp4400
Rp4401
sL3306L
g1
((lp4402
L12701L
aL13039L
aL10288L
aL7570L
aL7732L
aL6397L
aL4126L
atp4403
Rp4404
sL108L
g1
((lp4405
L9669L
aL12489L
aL12589L
aL12078L
aL8434L
aL13363L
aL13336L
aL3740L
atp4406
Rp4407
sL465L
g1
((lp4408
L12323L
aL519L
aL809L
aL13226L
aL8746L
aL1293L
atp4409
Rp4410
sL1510L
g1
((lp4411
L808L
aL1130L
aL7245L
aL2927L
aL2385L
aL10546L
atp4412
Rp4413
sL91L
g1
((lp4414
L2252L
aL2478L
aL4687L
aL12334L
aL4024L
aL13148L
aL1278L
aL11391L
atp4415
Rp4416
sL3361L
g1
((lp4417
L398L
aL8854L
aL2456L
aL6686L
aL9377L
aL39L
aL12202L
aL4525L
aL8763L
aL6593L
aL6599L
aL1874L
aL11863L
aL12889L
aL351L
aL5599L
aL8553L
aL12649L
aL10861L
aL5743L
aL882L
aL11386L
aL4989L
atp4418
Rp4419
sL2370L
g1
((lp4420
L642L
aL3304L
aL13039L
aL10288L
aL7570L
aL11801L
aL4126L
atp4421
Rp4422
sL2636L
g1
((lp4423
L2568L
aL6056L
aL9391L
aL7602L
aL11314L
aL2683L
atp4424
Rp4425
sL3241L
g1
((lp4426
L5351L
aL12334L
aL2800L
aL339L
aL12981L
aL1563L
atp4427
Rp4428
sL56L
g1
((lp4429
L3973L
aL13254L
aL1041L
aL6865L
aL7154L
aL3031L
aL1658L
atp4430
Rp4431
sL129L
g1
((lp4432
L2016L
aL3202L
aL7875L
aL7506L
aL23L
aL13146L
atp4433
Rp4434
sL561L
g1
((lp4435
L10594L
aL8260L
aL6663L
aL11116L
aL8080L
aL3217L
aL6898L
atp4436
Rp4437
sL1286L
g1
((lp4438
L7107L
aL13255L
aL6856L
aL9713L
aL4243L
aL7511L
atp4439
Rp4440
sL495L
g1
((lp4441
L8834L
aL9282L
aL304L
aL1779L
aL8923L
aL4093L
atp4442
Rp4443
sL205L
g1
((lp4444
L1921L
aL8834L
aL6950L
aL6068L
aL1300L
aL1658L
aL5919L
atp4445
Rp4446
sL1852L
g1
((lp4447
L5099L
aL594L
aL4051L
aL2290L
aL1719L
aL5181L
aL1150L
aL1119L
atp4448
Rp4449
sL451L
g1
((lp4450
L7140L
aL4868L
aL6253L
aL13108L
aL9752L
aL13307L
aL10876L
atp4451
Rp4452
sL1052L
g1
((lp4453
L4873L
aL8846L
aL11215L
aL12334L
aL4216L
aL10777L
atp4454
Rp4455
sL1857L
g1
((lp4456
L9411L
aL12334L
aL10613L
aL4381L
aL1054L
aL12415L
atp4457
Rp4458
sL1999L
g1
((lp4459
L3362L
aL12334L
aL9550L
aL436L
aL2869L
aL6870L
aL12284L
aL1278L
aL3999L
atp4460
Rp4461
sL3348L
g1
((lp4462
L4930L
aL13154L
aL10565L
aL421L
aL11928L
aL9049L
atp4463
Rp4464
sL224L
g1
((lp4465
L4875L
aL2572L
aL7630L
aL1650L
aL2003L
aL7190L
aL285L
aL7102L
atp4466
Rp4467
sL1171L
g1
((lp4468
L8321L
aL3715L
aL9860L
aL3845L
aL9094L
aL5383L
aL12040L
aL1800L
aL7177L
aL11404L
aL11020L
aL11278L
aL10135L
aL10359L
aL12569L
aL9626L
aL6683L
aL3102L
aL8609L
aL10533L
aL4389L
aL12839L
aL1573L
aL10541L
aL5039L
aL1072L
aL7220L
aL2100L
aL5686L
aL9911L
aL13000L
aL6857L
aL7893L
aL6621L
aL1118L
aL1507L
aL7909L
aL2278L
aL4455L
aL12389L
aL4207L
aL2034L
aL1266L
aL2805L
aL9591L
aL11641L
aL7547L
aL8702L
atp4469
Rp4470
sL1046L
g1
((lp4471
L11171L
aL7107L
aL7178L
aL4750L
aL10099L
aL7508L
atp4472
Rp4473
sL2788L
g1
((lp4474
L2147L
aL2951L
aL3607L
aL10169L
aL5431L
aL5023L
atp4475
Rp4476
sL4L
g1
((lp4477
L10560L
aL9281L
aL13255L
aL10760L
aL6344L
aL10671L
aL13264L
aL9331L
atp4478
Rp4479
sL1140L
g1
((lp4480
L743L
aL3208L
aL5806L
aL12334L
aL1041L
aL12508L
atp4481
Rp4482
sL631L
g1
((lp4483
L3973L
aL8846L
aL9392L
aL7154L
aL4024L
aL5758L
atp4484
Rp4485
sL364L
g1
((lp4486
L3623L
aL429L
aL12463L
aL3535L
aL3156L
aL5268L
atp4487
Rp4488
sL2449L
g1
((lp4489
L7518L
aL5574L
aL8327L
aL3623L
aL2695L
aL1096L
aL6221L
aL3535L
aL5268L
aL3156L
aL11001L
aL6201L
aL4126L
atp4490
Rp4491
sL2617L
g1
((lp4492
L11176L
aL2989L
aL12334L
aL5806L
aL3509L
aL1278L
atp4493
Rp4494
sL2253L
g1
((lp4495
L4796L
aL8932L
aL9134L
aL6159L
aL4247L
aL4764L
atp4496
Rp4497
sL2033L
g1
((lp4498
L522L
aL1644L
aL12332L
aL4244L
aL1434L
aL10463L
atp4499
Rp4500
sL2169L
g1
((lp4501
L4355L
aL5870L
aL8431L
aL12334L
aL4370L
aL4024L
atp4502
Rp4503
sL1945L
g1
((lp4504
L452L
aL8905L
aL9360L
aL3377L
aL4181L
aL1437L
atp4505
Rp4506
sL961L
g1
((lp4507
L3461L
aL6950L
aL6184L
aL12456L
aL6158L
aL4024L
aL5852L
atp4508
Rp4509
sL2945L
g1
((lp4510
L1504L
aL2855L
aL12367L
aL8432L
aL4946L
aL9145L
atp4511
Rp4512
sL1039L
g1
((lp4513
L6251L
aL13039L
aL10288L
aL7732L
aL12949L
aL4126L
atp4514
Rp4515
sL938L
g1
((lp4516
L5472L
aL12417L
aL9924L
aL101L
aL12904L
aL11164L
aL5544L
aL523L
aL2231L
aL9592L
aL2905L
aL3676L
atp4517
Rp4518
sL603L
g1
((lp4519
L8421L
aL3976L
aL12555L
aL9805L
aL12945L
aL3379L
aL6583L
atp4520
Rp4521
sL2165L
g1
((lp4522
L1952L
aL5505L
aL5890L
aL3657L
aL5168L
aL2900L
aL8728L
aL9818L
atp4523
Rp4524
sL1716L
g1
((lp4525
L3426L
aL4644L
aL13414L
aL10671L
aL13264L
aL5493L
aL8379L
atp4526
Rp4527
sL831L
g1
((lp4528
L9122L
aL10437L
aL2632L
aL13290L
aL8619L
aL3259L
aL13404L
atp4529
Rp4530
sL2942L
g1
((lp4531
L1635L
aL7780L
aL3633L
aL9912L
aL1339L
aL11806L
atp4532
Rp4533
sL2626L
g1
((lp4534
L13267L
aL10048L
aL3243L
aL12062L
atp4535
Rp4536
sL1717L
g1
((lp4537
L7040L
aL2435L
aL11501L
aL12634L
aL2172L
aL2142L
atp4538
Rp4539
sL525L
g1
((lp4540
L7073L
aL8579L
aL6319L
aL12660L
aL11191L
aL8569L
atp4541
Rp4542
sL3161L
g1
((lp4543
L8073L
aL9833L
aL12208L
aL7158L
aL5532L
aL11038L
atp4544
Rp4545
sL2845L
g1
((lp4546
L4736L
aL12557L
aL9677L
aL5743L
aL11534L
aL10130L
atp4547
Rp4548
sL1555L
g1
((lp4549
L2594L
aL67L
aL12204L
aL8407L
aL7672L
aL2136L
atp4550
Rp4551
sL1249L
g1
((lp4552
L11264L
aL8834L
aL6950L
aL2252L
aL8979L
aL4024L
atp4553
Rp4554
sL2091L
g1
((lp4555
L10661L
aL4615L
aL346L
aL13103L
aL16L
aL5615L
aL10671L
aL4306L
aL5338L
atp4556
Rp4557
sL1914L
g1
((lp4558
L3876L
aL10790L
aL1671L
aL12615L
aL5065L
atp4559
Rp4560
sL1206L
g1
((lp4561
L9985L
aL417L
aL12259L
aL1346L
aL3973L
aL8294L
aL3901L
aL5132L
aL8846L
aL11215L
aL9392L
aL5137L
aL10777L
aL10586L
aL3997L
atp4562
Rp4563
sL1125L
g1
((lp4564
L7786L
aL3789L
aL12973L
aL3728L
aL3344L
aL9372L
aL7549L
atp4565
Rp4566
sL441L
g1
((lp4567
L10212L
aL907L
aL1294L
aL11795L
aL11155L
aL10843L
atp4568
Rp4569
sL3266L
g1
((lp4570
L417L
aL3973L
aL4873L
aL4266L
aL5132L
aL12334L
aL8846L
aL11215L
aL7154L
aL4024L
aL4216L
aL10777L
aL1278L
atp4571
Rp4572
sL332L
g1
((lp4573
L13152L
aL12097L
aL832L
aL8357L
aL6954L
aL11243L
aL9039L
aL10515L
aL1143L
aL8408L
aL11450L
aL8670L
atp4574
Rp4575
sL2765L
g1
((lp4576
L7565L
aL4051L
aL660L
aL1719L
aL11642L
atp4577
Rp4578
sL1172L
g1
((lp4579
L5955L
aL4325L
aL13264L
aL5493L
aL12313L
aL11615L
atp4580
Rp4581
sL1447L
g1
((lp4582
L2436L
aL106L
aL4118L
aL5432L
aL12857L
aL5342L
atp4583
Rp4584
sL2497L
g1
((lp4585
L11969L
aL12451L
aL7876L
aL3109L
aL3750L
aL12811L
aL12014L
aL10132L
aL794L
aL10908L
atp4586
Rp4587
sL1982L
g1
((lp4588
L11428L
aL5957L
aL9734L
aL12944L
aL5493L
aL4858L
atp4589
Rp4590
sL1111L
g1
((lp4591
L663L
aL10140L
aL6191L
aL9873L
aL7127L
aL8252L
atp4592
Rp4593
sL2277L
g1
((lp4594
L11846L
aL6635L
aL10701L
aL11437L
aL5618L
aL11894L
atp4595
Rp4596
sL2371L
g1
((lp4597
L2563L
aL5635L
aL2583L
aL1528L
aL12345L
aL6495L
atp4598
Rp4599
sL2645L
g1
((lp4600
L3051L
aL1325L
aL6797L
aL8246L
aL854L
aL9177L
aL2746L
atp4601
Rp4602
sL2409L
g1
((lp4603
L13039L
aL5845L
aL4126L
aL11801L
aL3614L
aL4479L
atp4604
Rp4605
sL615L
g1
((lp4606
L5825L
aL12334L
aL13240L
aL4024L
aL155L
aL1278L
atp4607
Rp4608
sL7L
g1
((lp4609
L4643L
aL9669L
aL3335L
aL3594L
aL12245L
aL12984L
aL8509L
atp4610
Rp4611
sL597L
g1
((lp4612
L8544L
aL11233L
aL2594L
aL3973L
aL1447L
aL9479L
aL4167L
aL11215L
aL5493L
aL10455L
aL11448L
aL1018L
aL11134L
atp4613
Rp4614
sL2899L
g1
((lp4615
L9728L
aL7717L
aL6120L
aL11884L
aL1231L
aL6575L
aL5487L
aL8083L
aL8853L
aL11510L
aL5083L
aL5439L
atp4616
Rp4617
sL459L
g1
((lp4618
L10561L
aL1346L
aL3973L
aL4873L
aL8043L
aL12334L
aL8846L
aL11215L
aL7154L
aL4024L
aL4216L
aL1278L
atp4619
Rp4620
sL336L
g1
((lp4621
L12832L
aL5606L
aL2424L
aL1401L
aL12062L
atp4622
Rp4623
sL981L
g1
((lp4624
L12386L
aL2694L
aL9735L
aL7398L
aL5802L
aL4778L
aL8063L
aL1372L
aL4319L
atp4625
Rp4626
sL1015L
g1
((lp4627
L122L
aL12809L
aL2252L
aL2478L
aL12334L
aL13198L
aL4024L
aL4442L
aL11391L
atp4628
Rp4629
sL29L
g1
((lp4630
L9478L
aL8874L
aL10251L
aL8591L
aL2742L
atp4631
Rp4632
sL1552L
g1
((lp4633
L9648L
aL9110L
aL5006L
aL12759L
atp4634
Rp4635
sL1798L
g1
((lp4636
L7416L
aL3461L
aL3659L
aL2252L
aL12334L
aL2478L
aL4024L
aL1755L
aL412L
atp4637
Rp4638
sL1765L
g1
((lp4639
L896L
aL10658L
aL4230L
aL3273L
aL7724L
aL3478L
atp4640
Rp4641
sL2653L
g1
((lp4642
L3614L
aL13039L
aL10288L
aL11057L
aL11805L
aL4126L
atp4643
Rp4644
sL2738L
g1
((lp4645
L2252L
aL8750L
aL12334L
aL2478L
aL4024L
aL11391L
atp4646
Rp4647
sL391L
g1
((lp4648
L11941L
aL6661L
aL12153L
aL6443L
aL11948L
aL11467L
aL11919L
aL7184L
aL3732L
aL8278L
aL10457L
aL10522L
atp4649
Rp4650
sL608L
g1
((lp4651
L1159L
aL1515L
aL3309L
aL814L
aL5912L
atp4652
Rp4653
sL3066L
g1
((lp4654
L2151L
aL12844L
aL1039L
aL6834L
aL5266L
aL4149L
aL12828L
aL7070L
atp4655
Rp4656
sL1302L
g1
((lp4657
L9219L
aL3020L
aL10221L
aL628L
aL2868L
aL2933L
aL9079L
aL5467L
aL5277L
atp4658
Rp4659
sL2667L
g1
((lp4660
L4096L
aL3105L
aL12334L
aL7952L
aL11282L
aL5403L
aL11325L
atp4661
Rp4662
sL264L
g1
((lp4663
L9477L
aL13039L
aL7570L
aL7732L
aL11805L
aL4126L
atp4664
Rp4665
sL313L
g1
((lp4666
L6251L
aL10288L
aL12949L
aL4374L
aL10300L
aL4126L
atp4667
Rp4668
sL651L
g1
((lp4669
L3327L
aL1070L
aL11218L
aL10802L
aL3804L
aL7359L
atp4670
Rp4671
sL1988L
g1
((lp4672
L2210L
aL4298L
aL4751L
aL8215L
aL11253L
aL8758L
aL8855L
aL2559L
atp4673
Rp4674
sL98L
g1
((lp4675
L5605L
aL5161L
aL11658L
aL10826L
aL1804L
aL12653L
aL13033L
aL7274L
aL8907L
aL4337L
aL2322L
aL7420L
aL13084L
atp4676
Rp4677
sL3374L
g1
((lp4678
L430L
aL12752L
aL13396L
aL4636L
aL1789L
aL4509L
atp4679
Rp4680
sL1431L
g1
((lp4681
L5443L
aL9739L
aL2092L
aL11197L
aL7003L
aL4349L
atp4682
Rp4683
sL2416L
g1
((lp4684
L8548L
aL4488L
aL12072L
aL8590L
aL12304L
aL7474L
aL5918L
atp4685
Rp4686
sL3022L
g1
((lp4687
L9282L
aL11391L
aL5897L
aL2252L
aL6605L
aL2478L
aL11344L
aL6897L
aL884L
aL6871L
aL313L
aL10201L
aL6879L
atp4688
Rp4689
sL1814L
g1
((lp4690
L5600L
aL9673L
aL10932L
aL10552L
aL2524L
aL5501L
atp4691
Rp4692
sL1113L
g1
((lp4693
L9287L
aL1737L
aL13039L
aL7732L
aL11801L
aL6397L
aL413L
atp4694
Rp4695
sL2549L
g1
((lp4696
L3614L
aL13039L
aL11508L
aL7732L
aL12949L
aL4126L
atp4697
Rp4698
sL2152L
g1
((lp4699
L12800L
aL11805L
aL4483L
aL9287L
aL13039L
aL7570L
aL6397L
aL12701L
atp4700
Rp4701
sL195L
g1
((lp4702
L6313L
aL5772L
aL8398L
aL6419L
aL6324L
aL1530L
aL11710L
atp4703
Rp4704
sL1734L
g1
((lp4705
L3808L
aL3746L
aL3174L
aL2918L
aL2215L
aL841L
aL12202L
aL2156L
aL1356L
aL1709L
aL9841L
aL10130L
aL13075L
aL3101L
aL12890L
aL6263L
aL10842L
aL11933L
aL3966L
atp4706
Rp4707
sL2122L
g1
((lp4708
L2948L
aL3461L
aL6950L
aL5816L
aL10958L
aL12334L
aL5812L
aL4024L
aL11258L
aL5852L
atp4709
Rp4710
sL1646L
g1
((lp4711
L12695L
aL1104L
aL948L
aL5045L
aL6453L
aL7030L
aL376L
aL5239L
atp4712
Rp4713
sL2844L
g1
((lp4714
L3970L
aL6883L
aL5512L
aL7661L
aL3918L
aL13363L
aL4055L
atp4715
Rp4716
sL2223L
g1
((lp4717
L12800L
aL13039L
aL7570L
aL7732L
aL12949L
aL3614L
atp4718
Rp4719
sL1102L
g1
((lp4720
L11264L
aL3521L
aL8834L
aL7049L
aL6314L
aL1300L
aL7448L
aL8923L
aL3132L
atp4721
Rp4722
sL681L
g1
((lp4723
L10081L
aL3266L
aL3723L
aL10863L
aL4308L
aL9236L
aL537L
atp4724
Rp4725
sL2517L
g1
((lp4726
L10561L
aL3973L
aL5606L
aL4873L
aL2351L
aL11215L
aL7154L
aL8019L
aL12443L
atp4727
Rp4728
sL3122L
g1
((lp4729
L8518L
aL11660L
aL6291L
aL7956L
aL2997L
aL8505L
atp4730
Rp4731
sL1942L
g1
((lp4732
L646L
aL9961L
aL10572L
aL12944L
aL7027L
aL10963L
aL11033L
aL10074L
atp4733
Rp4734
sL1997L
g1
((lp4735
L5443L
aL3273L
aL5615L
aL13103L
aL1271L
aL10207L
atp4736
Rp4737
sL978L
g1
((lp4738
L12162L
aL4105L
aL11210L
aL619L
aL8308L
aL93L
aL6749L
atp4739
Rp4740
sL754L
g1
((lp4741
L6950L
aL2571L
aL2252L
aL3950L
aL12334L
aL2478L
aL2711L
aL4024L
aL1278L
aL11391L
atp4742
Rp4743
sL2557L
g1
((lp4744
L1088L
aL13097L
aL9290L
aL310L
aL11546L
aL1470L
atp4745
Rp4746
sL227L
g1
((lp4747
L11206L
aL5577L
aL5674L
aL6991L
aL3056L
aL10768L
aL11855L
aL12186L
aL3997L
aL10527L
atp4748
Rp4749
sL1163L
g1
((lp4750
L1001L
aL8298L
aL2252L
aL6578L
aL4786L
aL568L
atp4751
Rp4752
sL1727L
g1
((lp4753
L6950L
aL10249L
aL2252L
aL2478L
aL12334L
aL8959L
atp4754
Rp4755
sL1091L
g1
((lp4756
L3488L
aL163L
aL11272L
aL8523L
aL7980L
aL5525L
atp4757
Rp4758
sL2949L
g1
((lp4759
L7536L
aL10001L
aL9845L
aL10102L
aL3031L
aL6140L
atp4760
Rp4761
sL558L
g1
((lp4762
L13185L
aL10755L
aL6249L
aL5226L
aL11437L
aL8174L
aL13261L
aL1871L
aL5618L
aL1110L
aL5208L
atp4763
Rp4764
sL3199L
g1
((lp4765
L417L
aL5666L
aL139L
aL13240L
aL10777L
aL4991L
atp4766
Rp4767
sL2332L
g1
((lp4768
L4193L
aL9669L
aL9574L
aL5512L
aL12078L
aL13363L
aL12605L
atp4769
Rp4770
sL1425L
g1
((lp4771
L1025L
aL6792L
aL7565L
aL6358L
aL9273L
aL1790L
atp4772
Rp4773
sL2643L
g1
((lp4774
L6400L
aL2183L
aL3273L
aL877L
aL10319L
aL11421L
atp4775
Rp4776
sL2624L
g1
((lp4777
L6016L
aL5385L
aL11212L
aL2252L
aL12334L
aL2670L
aL2478L
aL4024L
aL12349L
aL11391L
atp4778
Rp4779
sL2101L
g1
((lp4780
L9440L
aL8834L
aL6950L
aL6826L
aL10958L
aL1658L
atp4781
Rp4782
sL1865L
g1
((lp4783
L12128L
aL2598L
aL9640L
aL6763L
aL10862L
aL8688L
aL8180L
aL25L
aL12252L
aL9855L
atp4784
Rp4785
sL1940L
g1
((lp4786
L2945L
aL7905L
aL12099L
aL7695L
aL11675L
aL189L
atp4787
Rp4788
sL2307L
g1
((lp4789
L11778L
aL2437L
aL943L
aL1967L
aL11825L
aL7097L
atp4790
Rp4791
sL504L
g1
((lp4792
L1764L
aL9020L
aL10057L
aL3113L
aL10121L
aL10062L
aL6643L
aL3580L
aL6750L
aL5727L
atp4793
Rp4794
sL1637L
g1
((lp4795
L7557L
aL12903L
aL9929L
aL2860L
aL2292L
aL8600L
aL9979L
atp4796
Rp4797
sL2399L
g1
((lp4798
L10784L
aL5604L
aL9642L
aL9706L
aL364L
aL5132L
aL8790L
aL1817L
aL13240L
aL10777L
atp4799
Rp4800
sL3053L
g1
((lp4801
L13416L
aL5129L
aL2739L
aL10678L
aL7576L
aL6074L
aL10428L
aL5085L
atp4802
Rp4803
sL2731L
g1
((lp4804
L3614L
aL10378L
aL13039L
aL10288L
aL11805L
aL4126L
atp4805
Rp4806
sL695L
g1
((lp4807
L871L
aL11595L
aL2252L
aL7374L
aL885L
aL4024L
aL11391L
atp4808
Rp4809
sL1915L
g1
((lp4810
L9637L
aL10955L
aL1646L
aL750L
aL11731L
aL6459L
atp4811
Rp4812
sL766L
g1
((lp4813
L4224L
aL7713L
aL10760L
aL74L
aL6636L
aL8541L
aL4702L
atp4814
Rp4815
sL1395L
g1
((lp4816
L6251L
aL13039L
aL10288L
aL7570L
aL5845L
aL4126L
aL12701L
aL3614L
atp4817
Rp4818
sL1965L
g1
((lp4819
L9600L
aL11648L
aL5898L
aL8715L
aL2188L
aL525L
aL3087L
aL13209L
aL8601L
aL3867L
aL11551L
aL10399L
aL11172L
aL2341L
aL422L
aL3881L
aL11307L
aL11443L
aL5429L
aL11832L
aL11321L
aL10940L
aL5950L
aL11713L
aL11332L
aL2251L
aL11985L
aL9939L
aL13270L
aL8919L
aL7895L
aL4569L
aL13274L
aL1642L
aL2542L
aL10223L
aL2677L
aL1910L
aL4470L
aL12156L
aL2430L
atp4820
Rp4821
sL2425L
g1
((lp4822
L2252L
aL2478L
aL12334L
aL9942L
aL4024L
aL11391L
atp4823
Rp4824
sL178L
g1
((lp4825
L160L
aL8355L
aL5969L
aL7283L
aL13370L
aL12895L
atp4826
Rp4827
sL2063L
g1
((lp4828
L5224L
aL1769L
aL10226L
aL9960L
atp4829
Rp4830
sL2314L
g1
((lp4831
L7416L
aL5385L
aL12334L
aL4024L
aL4793L
aL1020L
aL2813L
atp4832
Rp4833
sL2987L
g1
((lp4834
L12394L
aL10762L
aL12493L
aL8335L
aL2687L
atp4835
Rp4836
sL604L
g1
((lp4837
L3624L
aL11722L
aL3672L
aL684L
aL1004L
aL7537L
aL9720L
aL6078L
aL9599L
atp4838
Rp4839
sL710L
g1
((lp4840
L5381L
aL5701L
aL8398L
aL238L
aL1591L
aL10718L
atp4841
Rp4842
sL367L
g1
((lp4843
L4416L
aL6418L
aL12886L
aL2488L
aL13276L
aL13150L
atp4844
Rp4845
sL3081L
g1
((lp4846
L2695L
aL5268L
aL7518L
aL3156L
atp4847
Rp4848
sL1391L
g1
((lp4849
L13253L
aL1286L
aL7141L
aL2669L
aL2484L
aL7957L
atp4850
Rp4851
sL2678L
g1
((lp4852
L7010L
aL5L
aL11082L
aL11892L
aL1461L
aL9430L
aL7385L
aL1919L
atp4853
Rp4854
sL2042L
g1
((lp4855
L9281L
aL2058L
aL496L
aL3577L
aL7806L
atp4856
Rp4857
sL1916L
g1
((lp4858
L12855L
aL10409L
aL4143L
aL8245L
aL6295L
aL10680L
aL7802L
aL11422L
atp4859
Rp4860
sL1931L
g1
((lp4861
L7964L
aL13125L
aL2958L
aL5055L
atp4862
Rp4863
sL1098L
g1
((lp4864
L2252L
aL12334L
aL2478L
aL4024L
aL2459L
aL1278L
atp4865
Rp4866
sL2139L
g1
((lp4867
L4164L
aL3208L
aL11945L
aL12334L
aL5806L
aL1278L
atp4868
Rp4869
sL2658L
g1
((lp4870
L12965L
aL1481L
aL6793L
aL12364L
aL10132L
aL8311L
aL7070L
atp4871
Rp4872
sL1655L
g1
((lp4873
L3850L
aL2252L
aL2478L
aL8750L
aL12334L
aL4024L
aL1658L
aL6559L
atp4874
Rp4875
sL598L
g1
((lp4876
L7302L
aL12361L
aL12430L
aL4412L
aL7708L
aL7615L
atp4877
Rp4878
sL2442L
g1
((lp4879
L4704L
aL10209L
aL5511L
aL1553L
aL10482L
aL1308L
atp4880
Rp4881
sL1927L
g1
((lp4882
L2177L
aL2907L
aL1476L
aL7494L
aL3822L
aL635L
atp4883
Rp4884
sL2147L
g1
((lp4885
L1281L
aL8109L
aL8856L
aL10643L
aL7731L
aL1176L
aL5886L
atp4886
Rp4887
sL1686L
g1
((lp4888
L12772L
aL10954L
aL4595L
aL7351L
aL8953L
aL10525L
atp4889
Rp4890
sL1848L
g1
((lp4891
L11552L
aL2853L
aL7942L
aL3304L
aL1000L
aL7757L
aL13039L
aL10288L
aL7570L
aL7732L
aL9206L
aL3289L
aL4572L
aL6397L
aL4126L
atp4892
Rp4893
sL3040L
g1
((lp4894
L10176L
aL10946L
aL5861L
aL11431L
aL7336L
aL2347L
aL11019L
aL7984L
aL5493L
aL3031L
aL11898L
atp4895
Rp4896
sL3028L
g1
((lp4897
L7843L
aL1867L
aL6828L
aL9036L
aL4473L
aL7036L
atp4898
Rp4899
sL2561L
g1
((lp4900
L3136L
aL8834L
aL8581L
aL5062L
aL10277L
aL1960L
aL12204L
aL8782L
aL7155L
aL6807L
atp4901
Rp4902
sL2876L
g1
((lp4903
L5508L
aL5766L
aL12646L
aL2952L
aL9608L
aL12126L
aL13303L
aL4979L
aL1815L
aL9432L
aL6300L
aL10430L
atp4904
Rp4905
sL2123L
g1
((lp4906
L12320L
aL10944L
aL7362L
aL11556L
aL5412L
aL11274L
aL2922L
aL7406L
aL10990L
aL11318L
aL10394L
aL7295L
atp4907
Rp4908
sL1154L
g1
((lp4909
L7L
aL7049L
aL5385L
aL2252L
aL3950L
aL2478L
atp4910
Rp4911
sL2331L
g1
((lp4912
L8855L
aL13358L
aL8215L
aL2745L
aL9533L
atp4913
Rp4914
sL2827L
g1
((lp4915
L4835L
aL8301L
aL11312L
aL819L
aL405L
aL8024L
atp4916
Rp4917
sL3177L
g1
((lp4918
L6950L
aL2252L
aL10734L
aL12334L
aL2478L
aL6452L
aL4024L
atp4919
Rp4920
sL1582L
g1
((lp4921
L9287L
aL6221L
aL13039L
aL7799L
aL6334L
aL4126L
atp4922
Rp4923
sL2646L
g1
((lp4924
L10723L
aL12806L
aL1543L
aL5643L
aL3993L
aL4282L
atp4925
Rp4926
sL1558L
g1
((lp4927
L2592L
aL7943L
aL5448L
aL3596L
aL1298L
aL9246L
atp4928
Rp4929
sL2522L
g1
((lp4930
L8483L
aL5294L
aL2511L
aL6355L
aL10325L
aL4726L
aL4255L
atp4931
Rp4932
sL157L
g1
((lp4933
L11783L
aL6760L
aL6798L
aL8566L
aL9949L
aL9534L
atp4934
Rp4935
sL1258L
g1
((lp4936
L9184L
aL257L
aL3977L
aL7725L
aL13392L
aL11579L
atp4937
Rp4938
sL2089L
g1
((lp4939
L2784L
aL8356L
aL11509L
aL10448L
atp4940
Rp4941
sL501L
g1
((lp4942
L8459L
aL908L
aL1805L
aL12177L
aL11027L
aL2457L
aL2074L
aL4121L
aL8093L
aL434L
aL12729L
aL960L
aL6597L
aL1224L
aL6987L
aL7123L
aL7135L
aL3814L
aL2035L
aL2942L
aL4607L
atp4943
Rp4944
sL1096L
g1
((lp4945
L8834L
aL9282L
aL5767L
aL10986L
aL2964L
aL8923L
atp4946
Rp4947
sL2934L
g1
((lp4948
L266L
aL3026L
aL12855L
aL8698L
aL827L
aL3452L
aL10622L
atp4949
Rp4950
sL607L
g1
((lp4951
L7072L
aL2209L
aL10499L
aL4142L
aL7319L
aL4190L
atp4952
Rp4953
sL908L
g1
((lp4954
L1443L
aL9287L
aL3614L
aL13039L
aL12949L
aL11805L
aL4126L
aL4479L
atp4955
Rp4956
sL914L
g1
((lp4957
L4483L
aL9477L
aL3614L
aL9287L
aL13039L
aL10288L
aL11805L
aL4126L
atp4958
Rp4959
sL1041L
g1
((lp4960
L5034L
aL13264L
aL5846L
aL7513L
aL5594L
aL7806L
atp4961
Rp4962
sL723L
g1
((lp4963
L417L
aL9794L
aL707L
aL4873L
aL1688L
aL12334L
aL8846L
aL8942L
aL8047L
aL7154L
aL4024L
aL10777L
atp4964
Rp4965
sL1956L
g1
((lp4966
L7238L
aL3917L
aL7389L
aL4698L
aL2653L
aL4574L
atp4967
Rp4968
sL2796L
g1
((lp4969
L10378L
aL13039L
aL7570L
aL5845L
aL11801L
aL11805L
aL3614L
atp4970
Rp4971
sL2607L
g1
((lp4972
L5032L
aL3176L
aL2540L
aL685L
aL3757L
aL2004L
aL6585L
aL7389L
atp4973
Rp4974
sL2052L
g1
((lp4975
L4161L
aL9161L
aL12777L
aL10455L
aL12059L
aL2909L
aL5119L
atp4976
Rp4977
sL2534L
g1
((lp4978
L10602L
aL2252L
aL12334L
aL2478L
aL4024L
aL12349L
aL11391L
atp4979
Rp4980
sL1142L
g1
((lp4981
L2631L
aL13039L
aL10288L
aL12949L
aL3478L
aL4126L
aL10841L
aL3614L
atp4982
Rp4983
sL1653L
g1
((lp4984
L12701L
aL9287L
aL13039L
aL7570L
aL11805L
aL413L
atp4985
Rp4986
sL3020L
g1
((lp4987
L9344L
aL12546L
aL7042L
aL11012L
aL12037L
aL8454L
aL8331L
aL3212L
aL7053L
aL13331L
aL2710L
aL8347L
aL7067L
aL8349L
aL8095L
aL8738L
aL418L
aL9380L
aL4519L
aL6823L
aL5801L
aL6058L
aL5547L
aL12974L
aL12718L
aL2865L
aL9523L
aL1588L
aL10421L
aL951L
aL191L
aL3903L
aL7745L
aL2243L
aL7239L
aL969L
aL7755L
aL3532L
aL12879L
aL9682L
aL596L
aL4183L
aL3161L
aL4830L
aL13408L
aL11489L
aL7266L
aL1508L
aL10475L
aL2412L
aL1900L
aL9964L
aL6641L
aL12537L
aL3326L
atp4988
Rp4989
sL322L
g1
((lp4990
L8389L
aL9669L
aL6695L
aL10128L
aL7510L
aL11611L
aL12605L
atp4991
Rp4992
sL1758L
g1
((lp4993
L5665L
aL2594L
aL7330L
aL10020L
aL12807L
aL6877L
aL6444L
aL9997L
aL2095L
aL7984L
aL7919L
aL13104L
aL7569L
aL5849L
aL9981L
atp4994
Rp4995
sL1371L
g1
((lp4996
L11805L
aL6251L
aL13039L
aL656L
aL7570L
aL12701L
atp4997
Rp4998
sL2859L
g1
((lp4999
L259L
aL12855L
aL9847L
aL5806L
aL5778L
aL9687L
aL12152L
atp5000
Rp5001
sL1778L
g1
((lp5002
L10188L
aL5806L
aL12334L
aL2800L
aL11061L
aL3509L
aL2647L
aL1278L
atp5003
Rp5004
sL2523L
g1
((lp5005
L4167L
aL4873L
aL12334L
aL8846L
aL11215L
aL10777L
atp5006
Rp5007
sL463L
g1
((lp5008
L8002L
aL547L
aL12232L
aL9643L
aL4076L
aL9336L
aL1882L
aL2779L
aL9789L
atp5009
Rp5010
sL3123L
g1
((lp5011
L4224L
aL5761L
aL6913L
aL1667L
aL3076L
aL12805L
aL2181L
aL3085L
aL12950L
aL555L
aL2358L
aL4409L
aL5196L
aL13263L
aL4065L
aL11113L
aL1135L
aL7536L
aL5493L
aL3577L
aL2687L
atp5012
Rp5013
sL1377L
g1
((lp5014
L13029L
aL5896L
aL8043L
aL11215L
aL2902L
aL8025L
atp5015
Rp5016
sL573L
g1
((lp5017
L8544L
aL11428L
aL13263L
aL7536L
aL9712L
aL5269L
aL12950L
atp5018
Rp5019
sL1670L
g1
((lp5020
L3073L
aL2179L
aL5099L
aL9517L
aL11254L
aL12921L
atp5021
Rp5022
sL201L
g1
((lp5023
L4224L
aL12954L
aL1540L
aL5111L
atp5024
Rp5025
sL2315L
g1
((lp5026
L4193L
aL9669L
aL9574L
aL8299L
aL13363L
aL12984L
atp5027
Rp5028
sL868L
g1
((lp5029
L4705L
aL8260L
aL6088L
aL1129L
aL2635L
aL13037L
aL3598L
aL11511L
atp5030
Rp5031
sL738L
g1
((lp5032
L4416L
aL12322L
aL8357L
aL1143L
aL11450L
aL12700L
atp5033
Rp5034
sL2039L
g1
((lp5035
L3531L
aL9708L
aL4751L
aL11572L
aL8758L
aL13372L
atp5036
Rp5037
sL1458L
g1
((lp5038
L11805L
aL3614L
aL13039L
aL10288L
aL6397L
aL4126L
aL4479L
atp5039
Rp5040
sL2086L
g1
((lp5041
L4834L
aL7234L
aL4805L
aL3400L
aL2248L
aL8361L
aL9657L
aL4010L
aL5108L
aL7608L
aL7737L
aL1307L
atp5042
Rp5043
sL3018L
g1
((lp5044
L12933L
aL3754L
aL715L
aL11374L
aL12050L
aL2452L
atp5045
Rp5046
sL775L
g1
((lp5047
L7238L
aL3917L
aL3448L
aL11289L
aL11930L
aL8510L
aL13311L
atp5048
Rp5049
sL2898L
g1
((lp5050
L11975L
aL11883L
aL13007L
aL9904L
aL11157L
aL12214L
atp5051
Rp5052
sL2865L
g1
((lp5053
L6251L
aL6830L
aL13039L
aL7570L
aL12701L
aL4126L
atp5054
Rp5055
sL606L
g1
((lp5056
L11805L
aL13039L
aL12949L
aL4126L
aL6397L
aL6938L
aL12701L
aL3614L
aL4479L
atp5057
Rp5058
sL619L
g1
((lp5059
L1632L
aL10560L
aL3208L
aL5806L
aL12334L
aL2800L
aL10641L
atp5060
Rp5061
sL374L
g1
((lp5062
L7494L
aL10045L
aL12334L
aL11189L
aL4214L
aL4957L
aL1278L
atp5063
Rp5064
sL1548L
g1
((lp5065
L2273L
aL9057L
aL4423L
aL11977L
aL4077L
aL10002L
aL11603L
aL3251L
aL9492L
aL12125L
atp5066
Rp5067
sL382L
g1
((lp5068
L7138L
aL6180L
aL6821L
aL3367L
aL3912L
aL426L
aL4918L
aL8890L
atp5069
Rp5070
sL1585L
g1
((lp5071
L4833L
aL10503L
aL2856L
aL941L
aL12984L
aL11131L
atp5072
Rp5073
sL2656L
g1
((lp5074
L4224L
aL9281L
aL13255L
aL6344L
aL13128L
aL10671L
aL3577L
aL4445L
aL7806L
atp5075
Rp5076
sL481L
g1
((lp5077
L2660L
aL6256L
aL9905L
aL9586L
aL7806L
aL2687L
atp5078
Rp5079
sL3103L
g1
((lp5080
L2752L
aL10276L
aL4869L
aL5541L
aL3364L
aL13260L
aL12632L
aL5407L
atp5081
Rp5082
sL649L
g1
((lp5083
L4267L
aL12078L
aL3728L
aL7603L
aL4437L
aL4086L
aL8570L
aL1211L
atp5084
Rp5085
sL2872L
g1
((lp5086
L8640L
aL4129L
aL290L
aL11626L
aL7946L
aL3052L
aL748L
aL3406L
aL13071L
aL6031L
aL4278L
aL5341L
atp5087
Rp5088
sL832L
g1
((lp5089
L2595L
aL8878L
aL10926L
aL5813L
aL10166L
aL8636L
atp5090
Rp5091
sL2662L
g1
((lp5092
L6723L
aL10148L
aL8171L
aL2032L
aL1268L
aL4221L
atp5093
Rp5094
sL2833L
g1
((lp5095
L12832L
aL2594L
aL11048L
aL2831L
aL4367L
aL8274L
aL11571L
aL4371L
aL5493L
aL4597L
atp5096
Rp5097
sL1838L
g1
((lp5098
L10406L
aL2440L
aL2024L
aL10952L
aL2062L
aL4367L
atp5099
Rp5100
sL965L
g1
((lp5101
L12739L
aL8809L
aL5996L
aL1516L
aL4496L
aL9687L
aL2750L
atp5102
Rp5103
sL2908L
g1
((lp5104
L5700L
aL5189L
aL7911L
aL6987L
aL2478L
aL12334L
aL6769L
aL2483L
aL13108L
aL8598L
aL1020L
aL11391L
atp5105
Rp5106
sL3372L
g1
((lp5107
L11459L
aL7334L
aL3784L
aL12334L
aL5806L
aL7439L
aL12018L
aL1278L
atp5108
Rp5109
sL358L
g1
((lp5110
L1347L
aL644L
aL6157L
aL2834L
aL8506L
aL8283L
aL8254L
atp5111
Rp5112
sL3311L
g1
((lp5113
L11362L
aL9891L
aL12069L
aL6L
aL742L
aL9356L
aL8940L
aL2735L
aL12656L
aL1712L
aL9076L
aL9214L
atp5114
Rp5115
sL3257L
g1
((lp5116
L11805L
aL12518L
aL13039L
aL10288L
aL5845L
aL12949L
aL6397L
aL12701L
aL4126L
atp5117
Rp5118
sL1504L
g1
((lp5119
L8803L
aL4250L
aL2378L
aL4811L
aL6286L
aL7801L
aL5844L
aL10556L
aL6040L
aL2265L
aL3226L
aL6204L
atp5120
Rp5121
sL243L
g1
((lp5122
L613L
aL6950L
aL12459L
aL3917L
aL8498L
aL2904L
aL4698L
atp5123
Rp5124
sL1120L
g1
((lp5125
L10560L
aL8395L
aL3983L
aL1873L
aL277L
aL5493L
atp5126
Rp5127
sL348L
g1
((lp5128
L12701L
aL10378L
aL13039L
aL7570L
aL5845L
aL11801L
aL11805L
aL3614L
atp5129
Rp5130
sL1540L
g1
((lp5131
L9185L
aL7914L
aL8364L
aL881L
aL11988L
aL10844L
atp5132
Rp5133
sL487L
g1
((lp5134
L10978L
aL8516L
aL13159L
aL11527L
aL7372L
aL11930L
aL11068L
atp5135
Rp5136
sL66L
g1
((lp5137
L1728L
aL13025L
aL4357L
aL5515L
aL9885L
aL8158L
aL9695L
atp5138
Rp5139
sL1176L
g1
((lp5140
L3973L
aL4167L
aL12137L
aL4873L
aL11215L
aL10203L
aL8477L
atp5141
Rp5142
sL510L
g1
((lp5143
L65L
aL12993L
aL8452L
aL1702L
aL1165L
aL5038L
atp5144
Rp5145
sL2863L
g1
((lp5146
L484L
aL5864L
aL3564L
aL6516L
aL7193L
aL4122L
atp5147
Rp5148
sL2717L
g1
((lp5149
L11425L
aL4359L
aL2088L
aL1903L
aL9808L
aL9179L
atp5150
Rp5151
sL865L
g1
((lp5152
L4448L
aL4705L
aL4012L
aL7410L
aL10102L
aL2774L
aL2424L
aL8507L
atp5153
Rp5154
sL3026L
g1
((lp5155
L3970L
aL9669L
aL8209L
aL13363L
aL12984L
aL12671L
atp5156
Rp5157
sL2974L
g1
((lp5158
L8992L
aL9282L
aL12182L
aL6074L
aL5787L
aL3132L
atp5159
Rp5160
sL345L
g1
((lp5161
L9953L
aL11810L
aL7880L
aL10384L
aL11473L
aL5403L
atp5162
Rp5163
sL100L
g1
((lp5164
L12582L
aL8326L
aL11856L
aL13073L
aL12891L
atp5165
Rp5166
sL1517L
g1
((lp5167
L6251L
aL6830L
aL13039L
aL5845L
aL413L
aL3614L
atp5168
Rp5169
sL3201L
g1
((lp5170
L3138L
aL3684L
aL1704L
aL13117L
aL1299L
aL54L
aL2269L
aL2495L
atp5171
Rp5172
sL1464L
g1
((lp5173
L11201L
aL6280L
aL1802L
aL5258L
aL1043L
aL4087L
aL1790L
atp5174
Rp5175
sL1791L
g1
((lp5176
L12805L
aL8814L
aL3031L
aL502L
aL12407L
aL12797L
atp5177
Rp5178
sL1265L
g1
((lp5179
L13217L
aL11945L
aL13353L
aL4403L
aL7032L
aL8953L
aL8284L
atp5180
Rp5181
sL2679L
g1
((lp5182
L6950L
aL2252L
aL2478L
aL12334L
aL4024L
aL1278L
atp5183
Rp5184
sL2740L
g1
((lp5185
L2252L
aL12334L
aL2478L
aL9903L
aL4370L
aL4024L
atp5186
Rp5187
sL998L
g1
((lp5188
L12449L
aL5318L
aL10631L
aL2415L
aL12764L
aL1534L
atp5189
Rp5190
sL1340L
g1
((lp5191
L1610L
aL13039L
aL10288L
aL4126L
aL6938L
aL3614L
atp5192
Rp5193
sL714L
g1
((lp5194
L1952L
aL2252L
aL2478L
aL12334L
aL4024L
aL11391L
atp5195
Rp5196
sL2770L
g1
((lp5197
L8351L
aL9669L
aL6319L
aL466L
aL11191L
aL12671L
atp5198
Rp5199
sL492L
g1
((lp5200
L896L
aL12903L
aL12013L
aL5626L
aL13370L
aL6879L
atp5201
Rp5202
sL3155L
g1
((lp5203
L4224L
aL1282L
aL996L
aL1677L
aL13264L
aL12797L
atp5204
Rp5205
sL2886L
g1
((lp5206
L9287L
aL3304L
aL13039L
aL10288L
aL7570L
aL6397L
aL4126L
atp5207
Rp5208
sL3004L
g1
((lp5209
L3621L
aL5190L
aL229L
aL12942L
aL11833L
aL12863L
atp5210
Rp5211
sL1985L
g1
((lp5212
L13218L
aL963L
aL9444L
aL3338L
aL4363L
aL5306L
atp5213
Rp5214
sL684L
g1
((lp5215
L9096L
aL6957L
aL8209L
aL10068L
aL6548L
aL11415L
atp5216
Rp5217
sL1984L
g1
((lp5218
L9345L
aL4206L
aL8434L
aL12984L
aL6297L
aL3740L
atp5219
Rp5220
sL74L
g1
((lp5221
L4354L
aL9092L
aL2090L
aL4748L
aL5425L
aL2898L
atp5222
Rp5223
sL2310L
g1
((lp5224
L6535L
aL1607L
aL12334L
aL7024L
aL11473L
aL11604L
aL4024L
aL4184L
aL5403L
aL1278L
atp5225
Rp5226
sL269L
g1
((lp5227
L11721L
aL8201L
aL7949L
aL10386L
aL10611L
aL10170L
atp5228
Rp5229
sL462L
g1
((lp5230
L5132L
aL10445L
aL8846L
aL13104L
aL3990L
aL4639L
atp5231
Rp5232
sL3027L
g1
((lp5233
L13033L
aL299L
aL3788L
aL4397L
aL51L
aL5877L
atp5234
Rp5235
sL910L
g1
((lp5236
L5093L
aL2986L
aL10095L
aL13265L
aL6070L
aL5725L
atp5237
Rp5238
sL2880L
g1
((lp5239
L6533L
aL11432L
aL10602L
aL1930L
aL11595L
aL12279L
aL10649L
aL7707L
atp5240
Rp5241
sL3381L
g1
((lp5242
L8417L
aL7682L
aL12078L
aL2130L
aL8562L
aL4253L
atp5243
Rp5244
sL2128L
g1
((lp5245
L10278L
aL780L
aL10669L
aL4109L
aL1235L
aL9140L
aL1684L
aL9589L
aL12727L
aL3064L
aL7161L
aL8148L
aL5148L
aL12158L
atp5246
Rp5247
sL1195L
g1
((lp5248
L10880L
aL208L
aL12720L
aL10739L
aL10202L
aL2526L
atp5249
Rp5250
sL191L
g1
((lp5251
L9282L
aL3653L
aL293L
aL12334L
aL1278L
aL8894L
atp5252
Rp5253
sL306L
g1
((lp5254
L6883L
aL292L
aL3918L
aL8530L
aL8434L
aL12984L
aL8345L
atp5255
Rp5256
sL289L
g1
((lp5257
L2113L
aL6950L
aL13065L
aL3917L
aL12334L
aL12666L
aL816L
aL4024L
aL4377L
aL602L
aL1278L
atp5258
Rp5259
sL2831L
g1
((lp5260
L1350L
aL8327L
aL1096L
aL6251L
aL12331L
aL12463L
aL1748L
aL4374L
atp5261
Rp5262
sL869L
g1
((lp5263
L1665L
aL2498L
aL6753L
aL7734L
aL2395L
aL9983L
atp5264
Rp5265
sL3163L
g1
((lp5266
L2241L
aL2594L
aL7782L
aL12334L
aL4024L
aL4216L
aL1278L
atp5267
Rp5268
sL1936L
g1
((lp5269
L1374L
aL12103L
aL13263L
aL12341L
aL4858L
aL2139L
aL4702L
aL10815L
atp5270
Rp5271
sL3316L
g1
((lp5272
L3978L
aL11419L
aL12499L
aL1595L
aL11773L
aL1151L
atp5273
Rp5274
sL898L
g1
((lp5275
L7842L
aL390L
aL7462L
aL9485L
aL622L
aL9389L
aL1689L
atp5276
Rp5277
sL2393L
g1
((lp5278
L10564L
aL11406L
aL11055L
aL2160L
aL9520L
aL2487L
aL2874L
atp5279
Rp5280
sL141L
g1
((lp5281
L2213L
aL8678L
aL6600L
aL12408L
aL6907L
aL4637L
aL3256L
atp5282
Rp5283
sL493L
g1
((lp5284
L11141L
aL6950L
aL6504L
aL2252L
aL2478L
aL12334L
aL4024L
aL5816L
aL8923L
aL1278L
atp5285
Rp5286
sL2988L
g1
((lp5287
L8961L
aL12482L
aL9072L
aL5714L
aL4381L
aL1054L
atp5288
Rp5289
sL363L
g1
((lp5290
L5193L
aL783L
aL11727L
aL5074L
aL9880L
aL9823L
atp5291
Rp5292
sL1928L
g1
((lp5293
L6114L
aL6535L
aL11049L
aL6377L
aL11122L
aL5403L
atp5294
Rp5295
sL1905L
g1
((lp5296
L1326L
aL13102L
aL1593L
aL8721L
aL13113L
aL6329L
atp5297
Rp5298
sL3096L
g1
((lp5299
L3555L
aL715L
aL3276L
aL6486L
aL3288L
aL1080L
aL12797L
atp5300
Rp5301
sL1270L
g1
((lp5302
L8133L
aL12462L
aL7983L
aL10863L
aL10871L
aL1303L
atp5303
Rp5304
sL664L
g1
((lp5305
L9762L
aL5667L
aL7014L
aL334L
aL12337L
aL3318L
aL731L
aL5470L
atp5306
Rp5307
sL1272L
g1
((lp5308
L4710L
aL5355L
aL8717L
aL8336L
aL1009L
aL1879L
aL10584L
aL4955L
atp5309
Rp5310
sL2014L
g1
((lp5311
L4298L
aL4751L
aL8215L
aL8855L
aL2745L
aL4988L
aL2559L
atp5312
Rp5313
sL2248L
g1
((lp5314
L4224L
aL6658L
aL7237L
aL11304L
aL9555L
aL12436L
atp5315
Rp5316
sL2791L
g1
((lp5317
L4224L
aL4898L
aL2691L
aL13027L
aL9786L
aL2687L
atp5318
Rp5319
sL2766L
g1
((lp5320
L12677L
aL12588L
aL12636L
aL7610L
aL8795L
aL12732L
atp5321
Rp5322
sL2140L
g1
((lp5323
L3589L
aL2123L
aL7249L
aL9333L
aL6422L
aL3991L
atp5324
Rp5325
sL1813L
g1
((lp5326
L8291L
aL2181L
aL10919L
aL9832L
aL7185L
aL3031L
atp5327
Rp5328
sL3200L
g1
((lp5329
L13088L
aL4007L
aL10408L
aL2089L
aL11752L
aL4877L
aL8752L
aL3707L
atp5330
Rp5331
sL1790L
g1
((lp5332
L12448L
aL902L
aL5447L
aL1417L
aL6285L
aL1264L
atp5333
Rp5334
sL458L
g1
((lp5335
L8544L
aL1092L
aL7536L
aL339L
aL12950L
aL3997L
atp5336
Rp5337
sL1222L
g1
((lp5338
L7171L
aL6243L
aL11187L
aL8663L
aL11928L
aL9690L
atp5339
Rp5340
sL2064L
g1
((lp5341
L9287L
aL6251L
aL13039L
aL12949L
aL10841L
aL4126L
atp5342
Rp5343
sL946L
g1
((lp5344
L1664L
aL5219L
aL3719L
aL3465L
aL7785L
aL13327L
aL987L
atp5345
Rp5346
sL1484L
g1
((lp5347
L1952L
aL5189L
aL5671L
aL2252L
aL12334L
aL3950L
aL2478L
aL12179L
aL12349L
aL7416L
aL13309L
aL11391L
atp5348
Rp5349
sL2097L
g1
((lp5350
L7837L
aL12523L
aL3756L
aL2489L
aL13263L
aL7536L
aL8623L
aL2834L
aL4217L
aL4506L
aL1373L
aL4669L
aL1183L
atp5351
Rp5352
sL2257L
g1
((lp5353
L4704L
aL12999L
aL7465L
aL1747L
aL10071L
aL8216L
atp5354
Rp5355
sL2037L
g1
((lp5356
L11780L
aL13254L
aL4873L
aL11215L
aL7154L
aL4216L
aL3901L
atp5357
Rp5358
sL1185L
g1
((lp5359
L2208L
aL12713L
aL8755L
aL8628L
aL11253L
aL8758L
atp5360
Rp5361
sL791L
g1
((lp5362
L5890L
aL7821L
aL12334L
aL6129L
aL1590L
aL5403L
aL1278L
atp5363
Rp5364
sL2929L
g1
((lp5365
L11077L
aL8427L
aL10480L
aL2396L
aL446L
aL3775L
atp5366
Rp5367
sL2254L
g1
((lp5368
L515L
aL9445L
aL3917L
aL1613L
aL337L
aL9812L
atp5369
Rp5370
sL1528L
g1
((lp5371
L323L
aL2252L
aL12334L
aL2478L
aL3950L
aL4024L
aL6074L
aL1787L
aL1278L
aL11391L
atp5372
Rp5373
sL331L
g1
((lp5374
L9281L
aL11522L
aL13255L
aL5225L
aL3884L
aL6878L
atp5375
Rp5376
sL13L
g1
((lp5377
L9669L
aL12078L
aL6319L
aL13363L
aL11191L
aL8569L
aL12605L
atp5378
Rp5379
sL1181L
g1
((lp5380
L3041L
aL11041L
aL6729L
aL13353L
aL8625L
aL9139L
aL535L
aL3705L
aL6590L
atp5381
Rp5382
sL196L
g1
((lp5383
L9352L
aL9803L
aL7245L
aL12113L
aL4727L
aL125L
atp5384
Rp5385
sL2889L
g1
((lp5386
L7593L
aL4553L
aL12462L
aL12536L
aL537L
aL11899L
atp5387
Rp5388
sL1078L
g1
((lp5389
L6368L
aL3809L
aL672L
aL1446L
aL11111L
aL4721L
aL12402L
aL1076L
aL4277L
aL12124L
aL10045L
atp5390
Rp5391
sL2377L
g1
((lp5392
L4896L
aL11720L
aL11465L
aL4907L
aL8272L
aL6065L
aL5104L
aL437L
aL4245L
aL7033L
atp5393
Rp5394
sL2772L
g1
((lp5395
L1610L
aL13039L
aL10288L
aL4126L
aL11801L
aL3614L
atp5396
Rp5397
sL1921L
g1
((lp5398
L12701L
aL13039L
aL7570L
aL2873L
aL11805L
aL702L
atp5399
Rp5400
sL1160L
g1
((lp5401
L6251L
aL13039L
aL10288L
aL7570L
aL12701L
aL4126L
atp5402
Rp5403
sL461L
g1
((lp5404
L8098L
aL3639L
aL6437L
aL11688L
aL3913L
aL8683L
aL8812L
aL9358L
aL3791L
aL8305L
aL13174L
aL11671L
aL11995L
aL3165L
atp5405
Rp5406
sL1242L
g1
((lp5407
L4770L
aL6916L
aL580L
aL12292L
aL12296L
aL3275L
aL12205L
aL10638L
aL1614L
aL7216L
aL4429L
aL4019L
aL5107L
aL13304L
aL11867L
aL10907L
aL4285L
aL2463L
atp5408
Rp5409
sL609L
g1
((lp5410
L11142L
aL11815L
aL8968L
aL717L
aL12622L
aL595L
atp5411
Rp5412
sL2411L
g1
((lp5413
L2594L
aL2373L
aL7655L
aL10105L
aL8360L
aL7307L
aL1262L
aL11215L
aL1041L
aL850L
aL11284L
aL13400L
aL185L
aL1658L
aL3679L
atp5414
Rp5415
sL819L
g1
((lp5416
L13188L
aL6919L
aL11787L
aL4369L
aL11800L
aL5153L
aL11557L
aL7340L
aL10033L
aL4286L
aL3906L
aL12098L
aL2247L
aL8648L
aL11847L
aL11259L
aL3024L
aL2899L
aL9556L
aL8538L
aL9309L
aL738L
aL5482L
aL4844L
aL9454L
aL12399L
aL11635L
aL5110L
aL7031L
aL7547L
atp5417
Rp5418
sL1632L
g1
((lp5419
L128L
aL382L
aL12163L
aL2055L
aL781L
aL6931L
aL10131L
aL6045L
aL5410L
aL11046L
aL6951L
aL4139L
aL428L
aL10161L
aL9522L
aL8372L
aL4665L
aL5945L
aL4925L
aL9022L
aL1855L
aL13126L
aL9545L
aL8267L
aL6612L
aL2644L
aL11734L
aL3547L
aL1246L
aL12258L
aL9956L
aL11115L
aL6382L
aL12657L
aL1399L
aL6010L
aL7550L
atp5420
Rp5421
sL1873L
g1
((lp5422
L11805L
aL4483L
aL9287L
aL13039L
aL10288L
aL7570L
aL12949L
aL2873L
aL10841L
aL12701L
aL4126L
atp5423
Rp5424
sL745L
g1
((lp5425
L9281L
aL8260L
aL2181L
aL9832L
aL1135L
aL7536L
aL10102L
aL217L
aL7514L
atp5426
Rp5427
sL3317L
g1
((lp5428
L2594L
aL8391L
aL12394L
aL3854L
aL11606L
aL2139L
atp5429
Rp5430
sL601L
g1
((lp5431
L3973L
aL4873L
aL5132L
aL8846L
aL12334L
aL11215L
aL7154L
aL10777L
aL7773L
aL1278L
atp5432
Rp5433
sL217L
g1
((lp5434
L12576L
aL8032L
aL8259L
aL4580L
aL5924L
aL6243L
aL1647L
aL8532L
aL13047L
aL2840L
aL11069L
aL4766L
atp5435
Rp5436
sL2285L
g1
((lp5437
L8576L
aL2245L
aL2087L
aL104L
aL8495L
aL3731L
aL9363L
aL12855L
atp5438
Rp5439
sL750L
g1
((lp5440
L7267L
aL5956L
aL6632L
aL5385L
aL2252L
aL6093L
aL2478L
aL12334L
aL2163L
aL4024L
aL11391L
atp5441
Rp5442
sL2956L
g1
((lp5443
L9287L
aL6251L
aL13039L
aL10288L
aL7570L
aL12949L
aL12057L
aL6938L
aL11805L
aL4126L
atp5444
Rp5445
sL2574L
g1
((lp5446
L4736L
aL1195L
aL5743L
aL7921L
aL3131L
aL3966L
atp5447
Rp5448
sL1053L
g1
((lp5449
L13059L
aL7237L
aL1135L
aL12944L
aL785L
aL217L
atp5450
Rp5451
sL2056L
g1
((lp5452
L7334L
aL3208L
aL5806L
aL12334L
aL12951L
aL1278L
atp5453
Rp5454
sL1830L
g1
((lp5455
L4331L
aL9679L
aL2194L
aL342L
aL2522L
aL8315L
atp5456
Rp5457
sL538L
g1
((lp5458
L13057L
aL5894L
aL3566L
aL12254L
aL11807L
atp5459
Rp5460
sL517L
g1
((lp5461
L1959L
aL3880L
aL12200L
aL1517L
aL2000L
aL10961L
atp5462
Rp5463
sL520L
g1
((lp5464
L3942L
aL4873L
aL12334L
aL11215L
aL722L
aL2903L
aL10777L
atp5465
Rp5466
sL2020L
g1
((lp5467
L10435L
aL2819L
aL10951L
aL12366L
aL3760L
aL13080L
atp5468
Rp5469
sL1056L
g1
((lp5470
L10753L
aL6825L
aL11979L
aL12855L
aL12797L
aL9247L
atp5471
Rp5472
sL445L
g1
((lp5473
L1826L
aL12391L
aL9609L
aL2030L
aL8015L
aL3376L
aL8981L
aL2587L
atp5474
Rp5475
sL2321L
g1
((lp5476
L3234L
aL8418L
aL12903L
aL2537L
aL11092L
aL3031L
aL3352L
atp5477
Rp5478
sL39L
g1
((lp5479
L8804L
aL3689L
aL9295L
aL4753L
aL6419L
aL6491L
atp5480
Rp5481
sL2082L
g1
((lp5482
L8897L
aL3048L
aL10389L
aL4662L
aL822L
aL764L
atp5483
Rp5484
sL2803L
g1
((lp5485
L4193L
aL8386L
aL9574L
aL11143L
aL5512L
aL12984L
atp5486
Rp5487
sL1178L
g1
((lp5488
L9859L
aL4043L
aL5292L
aL9876L
aL10837L
aL7902L
atp5489
Rp5490
sL1825L
g1
((lp5491
L6722L
aL5380L
aL6023L
aL11882L
aL7916L
aL3421L
aL1919L
atp5492
Rp5493
sL476L
g1
((lp5494
L9281L
aL1669L
aL7536L
aL4880L
aL10738L
aL12948L
atp5495
Rp5496
sL637L
g1
((lp5497
L3080L
aL4297L
aL5007L
aL8530L
aL7347L
atp5498
Rp5499
sL1815L
g1
((lp5500
L2506L
aL12334L
aL4024L
aL2968L
aL10492L
aL1278L
atp5501
Rp5502
sL2079L
g1
((lp5503
L11595L
aL2252L
aL8173L
aL3950L
aL12334L
aL2478L
aL4024L
aL1278L
aL11391L
atp5504
Rp5505
sL872L
g1
((lp5506
L7712L
aL11433L
aL10377L
aL10317L
aL12348L
aL4751L
aL10865L
aL8755L
aL8758L
aL6012L
aL8317L
atp5507
Rp5508
sL1054L
g1
((lp5509
L5568L
aL4033L
aL6016L
aL11780L
aL4325L
aL7782L
aL4873L
aL8526L
aL9838L
aL3984L
aL1265L
aL4216L
aL5564L
aL1278L
atp5510
Rp5511
sL557L
g1
((lp5512
L3614L
aL13039L
aL10288L
aL5845L
aL11805L
aL4126L
atp5513
Rp5514
sL452L
g1
((lp5515
L7075L
aL9580L
aL2252L
aL2478L
aL4850L
aL10204L
aL8959L
atp5516
Rp5517
sL40L
g1
((lp5518
L3720L
aL457L
aL2700L
aL12207L
aL8242L
aL11094L
aL5148L
aL10846L
atp5519
Rp5520
sL506L
g1
((lp5521
L7936L
aL673L
aL4611L
aL1223L
aL9238L
aL7230L
atp5522
Rp5523
sL1422L
g1
((lp5524
L4931L
aL11468L
aL8755L
aL11253L
aL8758L
aL8855L
aL12348L
aL9533L
atp5525
Rp5526
sL2542L
g1
((lp5527
L3973L
aL11L
aL12334L
aL7154L
aL4024L
aL1278L
aL5758L
atp5528
Rp5529
sL2824L
g1
((lp5530
L1760L
aL9601L
aL5512L
aL3601L
aL2684L
aL9021L
aL4926L
atp5531
Rp5532
sL1681L
g1
((lp5533
L7389L
aL5731L
aL5617L
aL952L
aL1529L
aL10813L
atp5534
Rp5535
sL2937L
g1
((lp5536
L11151L
aL68L
aL564L
aL9284L
atp5537
Rp5538
sL1803L
g1
((lp5539
L8544L
aL2561L
aL7236L
aL4420L
aL5445L
aL8445L
atp5540
Rp5541
sL2311L
g1
((lp5542
L872L
aL6220L
aL9742L
aL5392L
aL3346L
aL8828L
atp5543
Rp5544
sL266L
g1
((lp5545
L417L
aL3973L
aL8846L
aL7154L
aL4024L
aL1278L
atp5546
Rp5547
sL842L
g1
((lp5548
L6977L
aL7556L
aL10630L
aL778L
aL6158L
aL816L
aL9525L
aL4151L
aL4024L
aL9818L
atp5549
Rp5550
sL1889L
g1
((lp5551
L3461L
aL6950L
aL3527L
aL11141L
aL12334L
aL4024L
aL1755L
aL1278L
atp5552
Rp5553
sL109L
g1
((lp5554
L11945L
aL12493L
aL12334L
aL5806L
aL12018L
aL12759L
aL7800L
aL7513L
aL1278L
atp5555
Rp5556
sL1980L
g1
((lp5557
L417L
aL6535L
aL12334L
aL4024L
aL13240L
aL10777L
aL6041L
aL1278L
atp5558
Rp5559
sL1967L
g1
((lp5560
L512L
aL651L
aL10382L
aL12943L
aL4756L
aL27L
aL10909L
aL6305L
aL9633L
aL12450L
aL10534L
aL12712L
aL9257L
aL5162L
aL10410L
aL2475L
aL10364L
aL7859L
aL1207L
aL1337L
aL7609L
aL836L
aL13125L
aL13384L
aL8657L
aL2772L
aL9685L
aL480L
aL11488L
aL13410L
aL7778L
aL3044L
aL3558L
aL7143L
aL6505L
aL2665L
aL5100L
aL3310L
aL13041L
aL9721L
aL11260L
aL3965L
aL2302L
atp5561
Rp5562
sL3050L
g1
((lp5563
L12765L
aL4545L
aL4259L
aL6431L
aL8963L
aL5830L
aL8893L
aL2799L
aL4112L
aL274L
aL53L
aL12025L
aL8824L
aL8921L
aL3003L
aL7421L
aL10015L
atp5564
Rp5565
sL3085L
g1
((lp5566
L2786L
aL4228L
aL7178L
aL2187L
aL8175L
aL8561L
aL669L
atp5567
Rp5568
sL1129L
g1
((lp5569
L11750L
aL8329L
aL3889L
aL3890L
aL12661L
aL7227L
atp5570
Rp5571
sL3308L
g1
((lp5572
L3461L
aL6950L
aL12334L
aL11152L
aL2904L
aL4024L
atp5573
Rp5574
sL263L
g1
((lp5575
L11805L
aL10308L
aL7436L
aL13039L
aL7570L
aL11801L
aL6397L
aL12701L
atp5576
Rp5577
sL3295L
g1
((lp5578
L3461L
aL6950L
aL12334L
aL8431L
aL3956L
aL4024L
atp5579
Rp5580
sL1621L
g1
((lp5581
L2177L
aL4743L
aL3058L
aL11478L
aL8022L
aL4095L
atp5582
Rp5583
sL523L
g1
((lp5584
L6115L
aL4517L
aL13257L
aL6928L
aL4825L
aL2653L
atp5585
Rp5586
sL3312L
g1
((lp5587
L2080L
aL4993L
aL254L
aL278L
aL7350L
aL10136L
aL11163L
aL5406L
atp5588
Rp5589
sL2150L
g1
((lp5590
L3200L
aL8322L
aL10500L
aL2224L
aL9366L
aL9821L
atp5591
Rp5592
sL1058L
g1
((lp5593
L3399L
aL11017L
aL3436L
aL10893L
aL2799L
aL50L
aL10453L
aL4986L
atp5594
Rp5595
sL1273L
g1
((lp5596
L9090L
aL7363L
aL1541L
aL458L
aL8332L
aL5103L
atp5597
Rp5598
sL2283L
g1
((lp5599
L7373L
aL1504L
aL10597L
aL6846L
atp5600
Rp5601
sL2755L
g1
((lp5602
L7625L
aL5930L
aL13262L
aL10003L
aL3572L
aL12061L
atp5603
Rp5604
sL2326L
g1
((lp5605
L717L
aL12334L
aL2478L
aL11793L
aL12279L
aL4375L
aL12382L
atp5606
Rp5607
sL218L
g1
((lp5608
L1889L
aL1713L
aL7091L
aL7348L
aL2007L
atp5609
Rp5610
sL18L
g1
((lp5611
L5666L
aL5604L
aL13261L
aL12334L
aL8790L
aL4024L
aL13240L
aL4381L
aL1278L
atp5612
Rp5613
sL3333L
g1
((lp5614
L3614L
aL13039L
aL10288L
aL3444L
aL3485L
aL4126L
atp5615
Rp5616
sL2267L
g1
((lp5617
L7416L
aL6950L
aL7049L
aL2252L
aL12334L
aL3950L
aL2478L
aL4024L
aL1278L
atp5618
Rp5619
sL3135L
g1
((lp5620
L11586L
aL7107L
aL11334L
aL1996L
aL12466L
aL10173L
atp5621
Rp5622
sL1829L
g1
((lp5623
L1988L
aL6950L
aL10249L
aL778L
aL11306L
aL12334L
aL5870L
aL4024L
atp5624
Rp5625
sL2305L
g1
((lp5626
L8902L
aL6406L
aL5098L
aL12503L
aL3031L
aL11258L
atp5627
Rp5628
sL2866L
g1
((lp5629
L3458L
aL8675L
aL6818L
aL12002L
aL3621L
aL9192L
aL11468L
aL8755L
aL6483L
aL11253L
aL1363L
aL8215L
aL12348L
aL11583L
atp5630
Rp5631
sL1234L
g1
((lp5632
L7368L
aL2731L
aL7116L
aL6966L
aL12536L
aL537L
aL125L
aL12734L
aL11455L
atp5633
Rp5634
sL3375L
g1
((lp5635
L5473L
aL901L
aL11214L
aL6649L
aL2363L
aL11198L
atp5636
Rp5637
sL1863L
g1
((lp5638
L9732L
aL9031L
aL1834L
aL1454L
aL8463L
aL6773L
aL345L
aL3770L
atp5639
Rp5640
sL1827L
g1
((lp5641
L3201L
aL4421L
aL12330L
aL13388L
aL4781L
aL12303L
aL1523L
aL726L
aL11864L
aL11514L
aL4606L
aL13055L
atp5642
Rp5643
sL1088L
g1
((lp5644
L10752L
aL5512L
aL4970L
aL332L
aL13040L
aL3767L
aL1977L
aL12605L
atp5645
Rp5646
sL1103L
g1
((lp5647
L8673L
aL3526L
aL12619L
aL12562L
aL7197L
aL11614L
atp5648
Rp5649
sL1251L
g1
((lp5650
L4483L
aL9287L
aL4776L
aL13039L
aL10288L
aL6397L
aL10938L
aL11805L
aL4126L
atp5651
Rp5652
sL2647L
g1
((lp5653
L13314L
aL168L
aL4107L
aL2751L
aL12697L
aL6399L
atp5654
Rp5655
sL883L
g1
((lp5656
L4513L
aL12575L
aL4542L
aL11270L
aL3755L
aL12814L
aL11382L
aL5242L
aL542L
aL6623L
atp5657
Rp5658
sL1678L
g1
((lp5659
L3660L
aL3538L
aL4980L
aL12088L
aL7324L
aL3679L
atp5660
Rp5661
sL354L
g1
((lp5662
L5346L
aL12684L
aL974L
aL7888L
aL4657L
aL1617L
aL178L
aL3572L
aL13048L
aL12346L
aL10044L
aL5055L
atp5663
Rp5664
sL219L
g1
((lp5665
L1342L
aL10465L
aL2754L
aL11217L
aL8691L
aL4254L
atp5666
Rp5667
sL150L
g1
((lp5668
L7621L
aL3001L
aL8186L
aL12797L
aL12030L
atp5669
Rp5670
sL1430L
g1
((lp5671
L10921L
aL3914L
aL12719L
aL12086L
aL1975L
aL11484L
aL8063L
atp5672
Rp5673
sL2581L
g1
((lp5674
L7436L
aL13039L
aL7570L
aL7732L
aL12701L
aL3614L
atp5675
Rp5676
sL160L
g1
((lp5677
L1473L
aL13121L
aL6730L
aL4524L
aL853L
aL821L
aL3130L
atp5678
Rp5679
sL503L
g1
((lp5680
L12832L
aL5895L
aL10575L
aL9361L
aL4371L
aL12855L
aL1080L
atp5681
Rp5682
sL2789L
g1
((lp5683
L13280L
aL8225L
aL73L
aL12623L
aL5138L
aL3606L
atp5684
Rp5685
sL3065L
g1
((lp5686
L4931L
aL5699L
aL4828L
aL7718L
aL6122L
aL2559L
aL4751L
aL10098L
aL8755L
aL8628L
aL11253L
aL8215L
aL8855L
aL8413L
aL4988L
aL9533L
aL12351L
atp5687
Rp5688
sL2011L
g1
((lp5689
L2145L
aL1314L
aL9859L
aL4071L
aL3083L
aL12028L
atp5690
Rp5691
sL1720L
g1
((lp5692
L5280L
aL13219L
aL5955L
aL4167L
aL7854L
aL5493L
atp5693
Rp5694
sL172L
g1
((lp5695
L417L
aL10604L
aL12334L
aL4024L
aL13240L
aL10777L
aL1278L
atp5696
Rp5697
sL1578L
g1
((lp5698
L0L
aL4640L
aL2748L
aL5478L
aL4969L
aL2155L
aL5695L
aL11566L
aL4816L
aL6353L
aL2783L
aL8659L
aL2259L
aL13109L
aL7414L
aL7255L
aL9945L
aL11100L
aL4863L
atp5699
Rp5700
sL3247L
g1
((lp5701
L10661L
aL13255L
aL6344L
aL10760L
aL16L
aL8541L
aL893L
atp5702
Rp5703
sL3248L
g1
((lp5704
L290L
aL10722L
aL3470L
aL2612L
aL6772L
aL380L
aL7231L
atp5705
Rp5706
sL1919L
g1
((lp5707
L11393L
aL3533L
aL2064L
aL11121L
aL632L
aL959L
atp5708
Rp5709
sL1515L
g1
((lp5710
L1443L
aL13039L
aL7570L
aL1397L
aL11801L
aL11805L
aL3614L
atp5711
Rp5712
sL139L
g1
((lp5713
L3304L
aL13039L
aL3576L
aL6938L
aL11805L
aL4126L
atp5714
Rp5715
sL2953L
g1
((lp5716
L9669L
aL3887L
aL6319L
aL8191L
aL3740L
aL12671L
atp5717
Rp5718
sL1760L
g1
((lp5719
L11595L
aL2252L
aL5870L
aL12334L
aL2478L
aL4024L
atp5720
Rp5721
sL3252L
g1
((lp5722
L1316L
aL5001L
aL562L
aL3765L
aL9048L
aL1849L
atp5723
Rp5724
sL1455L
g1
((lp5725
L11872L
aL4097L
aL3013L
aL9766L
aL1127L
aL6568L
aL6478L
aL1743L
aL11986L
aL2483L
aL4755L
aL2613L
aL6200L
aL606L
atp5726
Rp5727
sL792L
g1
((lp5728
L2112L
aL7536L
aL6865L
aL5362L
aL2512L
aL12797L
atp5729
Rp5730
sL2922L
g1
((lp5731
L4549L
aL11398L
aL3654L
aL1896L
aL9255L
aL7958L
atp5732
Rp5733
sL2434L
g1
((lp5734
L417L
aL3942L
aL4873L
aL8846L
aL11215L
aL12334L
aL10777L
aL3901L
atp5735
Rp5736
sL2741L
g1
((lp5737
L13348L
aL3973L
aL13254L
aL4873L
aL11215L
aL9392L
aL7154L
atp5738
Rp5739
sL2078L
g1
((lp5740
L2373L
aL8846L
aL850L
aL1658L
aL3901L
aL1278L
atp5741
Rp5742
sL2848L
g1
((lp5743
L6759L
aL4047L
aL1495L
aL6715L
aL4765L
atp5744
Rp5745
sL2825L
g1
((lp5746
L11906L
aL3206L
aL7944L
aL9233L
aL9234L
aL7828L
aL3221L
aL7191L
aL2974L
aL419L
aL4772L
aL9129L
aL8617L
aL8491L
aL4523L
aL11694L
aL10544L
aL13110L
aL10295L
aL5944L
aL186L
aL1978L
aL11710L
aL11843L
aL2119L
aL4554L
aL9548L
aL5327L
aL4944L
aL5458L
aL9298L
aL3029L
aL4314L
aL7134L
aL12510L
aL96L
aL2018L
aL9573L
aL1640L
aL2666L
aL5868L
aL2928L
aL12916L
aL8053L
aL5624L
atp5747
Rp5748
sL2693L
g1
((lp5749
L3947L
aL11343L
aL5265L
aL7703L
aL1945L
aL12542L
aL4127L
atp5750
Rp5751
sL751L
g1
((lp5752
L2594L
aL12334L
aL5391L
aL2705L
aL1110L
aL4024L
aL7327L
atp5753
Rp5754
sL2496L
g1
((lp5755
L9697L
aL3331L
aL9959L
aL8072L
aL9897L
aL1547L
aL8595L
aL1973L
aL8478L
aL10495L
atp5756
Rp5757
sL2894L
g1
((lp5758
L4132L
aL8037L
aL6727L
aL5130L
aL12237L
aL9937L
aL12757L
aL12444L
atp5759
Rp5760
sL2227L
g1
((lp5761
L2336L
aL747L
aL11634L
aL4437L
aL13141L
aL796L
atp5762
Rp5763
sL1668L
g1
((lp5764
L2881L
aL8674L
aL5930L
aL4463L
aL5939L
aL3863L
atp5765
Rp5766
sL3193L
g1
((lp5767
L9698L
aL9765L
aL10348L
aL7085L
aL5550L
aL11258L
atp5768
Rp5769
sL422L
g1
((lp5770
L5890L
aL4044L
aL12045L
aL6638L
aL1744L
aL9909L
atp5771
Rp5772
sL2484L
g1
((lp5773
L12387L
aL5443L
aL7417L
aL8551L
aL12903L
aL3273L
aL11568L
aL11472L
aL6578L
aL7611L
aL9017L
aL4538L
aL7131L
atp5774
Rp5775
sL249L
g1
((lp5776
L11468L
aL8628L
aL8758L
aL8855L
aL11833L
aL12348L
atp5777
Rp5778
sL1489L
g1
((lp5779
L5316L
aL12334L
aL4623L
aL6870L
aL1278L
aL3454L
atp5780
Rp5781
sL2080L
g1
((lp5782
L8164L
aL3466L
aL8917L
aL10005L
aL3031L
aL3994L
aL6111L
atp5783
Rp5784
sL83L
g1
((lp5785
L10304L
aL5284L
aL13164L
aL12624L
aL411L
aL10655L
atp5786
Rp5787
sL44L
g1
((lp5788
L6526L
aL7054L
aL10385L
aL5684L
aL1556L
aL3833L
aL10750L
atp5789
Rp5790
sL251L
g1
((lp5791
L1443L
aL13039L
aL10288L
aL7570L
aL4126L
aL11805L
aL12701L
atp5792
Rp5793
sL2615L
g1
((lp5794
L12000L
aL8838L
aL11979L
aL8179L
aL10422L
aL10296L
aL9277L
atp5795
Rp5796
sL1019L
g1
((lp5797
L2304L
aL4773L
aL2888L
aL12779L
aL6615L
aL1881L
atp5798
Rp5799
sL1924L
g1
((lp5800
L417L
aL3973L
aL5606L
aL4873L
aL13099L
aL12334L
aL11215L
aL7154L
aL4024L
aL10777L
atp5801
Rp5802
sL3086L
g1
((lp5803
L6339L
aL10406L
aL13263L
aL7536L
aL3031L
aL11290L
aL5597L
atp5804
Rp5805
sL1278L
g1
((lp5806
L4257L
aL11290L
aL1255L
aL8080L
aL5493L
aL2618L
atp5807
Rp5808
sL137L
g1
((lp5809
L3840L
aL493L
aL10094L
aL12984L
aL4730L
aL3932L
atp5810
Rp5811
sL1837L
g1
((lp5812
L10592L
aL10597L
aL9357L
aL3728L
aL12627L
aL8287L
atp5813
Rp5814
sL2673L
g1
((lp5815
L10085L
aL4218L
aL3303L
aL8798L
aL7435L
aL4555L
aL4303L
aL11408L
aL10352L
aL5234L
aL147L
aL3544L
aL4089L
aL7866L
aL158L
atp5816
Rp5817
sL1170L
g1
((lp5818
L12701L
aL13039L
aL7570L
aL413L
aL4126L
aL4479L
atp5819
Rp5820
sL2720L
g1
((lp5821
L1472L
aL2252L
aL12334L
aL2478L
aL4024L
aL11391L
atp5822
Rp5823
sL1959L
g1
((lp5824
L12352L
aL5731L
aL7238L
aL3917L
aL12307L
aL2938L
atp5825
Rp5826
sL1797L
g1
((lp5827
L6530L
aL7492L
aL11623L
aL6283L
aL5461L
aL3829L
atp5828
Rp5829
sL2269L
g1
((lp5830
L8857L
aL7393L
aL6950L
aL12830L
atp5831
Rp5832
sL1771L
g1
((lp5833
L2021L
aL10126L
aL4558L
aL7152L
aL8219L
aL4060L
atp5834
Rp5835
sL2464L
g1
((lp5836
L6377L
aL2091L
aL6034L
aL2837L
aL4248L
aL13373L
atp5837
Rp5838
sL2036L
g1
((lp5839
L6243L
aL2309L
aL12141L
aL11315L
aL10996L
aL5694L
atp5840
Rp5841
sL156L
g1
((lp5842
L4931L
aL12348L
aL4751L
aL8755L
aL8215L
aL11253L
aL8855L
aL4828L
aL2559L
atp5843
Rp5844
sL1730L
g1
((lp5845
L13152L
aL7201L
aL845L
aL10320L
aL6097L
aL4283L
aL12319L
atp5846
Rp5847
sL1925L
g1
((lp5848
L10530L
aL7238L
aL3917L
aL7982L
aL5232L
aL1626L
aL2747L
atp5849
Rp5850
sL2793L
g1
((lp5851
L5899L
aL2157L
aL7246L
aL949L
aL9465L
aL7354L
atp5852
Rp5853
sL1405L
g1
((lp5854
L9540L
aL1990L
aL1261L
aL6414L
aL7192L
aL6649L
atp5855
Rp5856
sL2216L
g1
((lp5857
L13263L
aL12944L
aL10803L
aL3031L
aL1080L
aL3774L
atp5858
Rp5859
sL1100L
g1
((lp5860
L9669L
aL8102L
aL9965L
aL12078L
aL3759L
aL3728L
aL13363L
aL1211L
aL3932L
atp5861
Rp5862
sL2905L
g1
((lp5863
L8866L
aL12834L
aL11718L
aL9012L
aL4342L
aL10618L
atp5864
Rp5865
sL1576L
g1
((lp5866
L10340L
aL11559L
aL9390L
aL11023L
aL1364L
aL5654L
atp5867
Rp5868
sL385L
g1
((lp5869
L6251L
aL13039L
aL7570L
aL12949L
aL4126L
aL3614L
atp5870
Rp5871
sL23L
g1
((lp5872
L8195L
aL811L
aL10353L
aL7889L
aL571L
aL6878L
atp5873
Rp5874
sL2292L
g1
((lp5875
L2848L
aL2470L
aL6794L
aL7021L
aL8533L
aL3231L
atp5876
Rp5877
sL1937L
g1
((lp5878
L2594L
aL5666L
aL10345L
aL6445L
aL12334L
aL2803L
aL10613L
aL1054L
aL4024L
aL5753L
aL5208L
aL12574L
atp5879
Rp5880
sL2943L
g1
((lp5881
L161L
aL4319L
aL1763L
aL3812L
aL8714L
aL3914L
aL11979L
aL12719L
aL5616L
aL722L
aL5076L
aL3509L
aL1975L
aL8063L
aL991L
atp5882
Rp5883
sL1862L
g1
((lp5884
L6346L
aL6315L
aL8397L
aL114L
aL2140L
aL10717L
aL2846L
atp5885
Rp5886
sL1412L
g1
((lp5887
L8327L
aL1096L
aL12331L
aL2445L
aL7440L
aL11032L
atp5888
Rp5889
sL774L
g1
((lp5890
L12805L
aL9714L
aL914L
aL13364L
aL2516L
aL7479L
aL8057L
atp5891
Rp5892
sL2810L
g1
((lp5893
L7782L
aL5132L
aL12334L
aL11215L
aL1742L
aL1278L
atp5894
Rp5895
sL790L
g1
((lp5896
L11434L
aL811L
aL2701L
aL10353L
aL7889L
aL7511L
aL11353L
aL571L
atp5897
Rp5898
sL779L
g1
((lp5899
L1392L
aL10976L
aL7518L
aL2695L
atp5900
Rp5901
sL1303L
g1
((lp5902
L9920L
aL3874L
aL4546L
aL7940L
aL12642L
aL13286L
aL12935L
aL2066L
aL10229L
aL7381L
aL1084L
atp5903
Rp5904
sL1332L
g1
((lp5905
L2478L
aL12334L
aL12279L
aL4024L
aL6074L
aL12349L
atp5906
Rp5907
sL1611L
g1
((lp5908
L6400L
aL9598L
aL2183L
aL8585L
aL7920L
aL4145L
aL4403L
aL12692L
aL8629L
aL1974L
aL3678L
atp5909
Rp5910
sL1454L
g1
((lp5911
L6404L
aL1765L
aL9606L
aL5119L
atp5912
Rp5913
sL3222L
g1
((lp5914
L12262L
aL12937L
aL9610L
aL5259L
aL12461L
aL7341L
aL11699L
aL9886L
atp5915
Rp5916
sL732L
g1
((lp5917
L9281L
aL5538L
aL12475L
aL5597L
aL10622L
aL9247L
atp5918
Rp5919
sL2913L
g1
((lp5920
L8962L
aL9347L
aL3396L
aL1860L
atp5921
Rp5922
sL2558L
g1
((lp5923
L3010L
aL5462L
aL1770L
aL12798L
atp5924
Rp5925
sL2828L
g1
((lp5926
L7981L
aL10317L
aL13213L
aL3566L
aL8215L
aL11133L
aL13215L
atp5927
Rp5928
sL2090L
g1
((lp5929
L642L
aL13039L
aL10288L
aL9914L
aL4126L
atp5930
Rp5931
sL2591L
g1
((lp5932
L13039L
aL10288L
aL7570L
aL11805L
aL4126L
aL4479L
atp5933
Rp5934
sL939L
g1
((lp5935
L11744L
aL5633L
aL2337L
aL4612L
aL12202L
aL9171L
atp5936
Rp5937
sL2732L
g1
((lp5938
L9287L
aL13039L
aL10288L
aL11638L
aL11805L
aL4126L
atp5939
Rp5940
sL2750L
g1
((lp5941
L3304L
aL13039L
aL10288L
aL7570L
aL12701L
aL4126L
atp5942
Rp5943
sL2272L
g1
((lp5944
L6950L
aL2252L
aL12334L
aL3950L
aL2478L
aL4024L
aL1278L
aL11391L
atp5945
Rp5946
sL1622L
g1
((lp5947
L5029L
aL72L
aL5841L
aL4630L
aL12029L
aL7743L
atp5948
Rp5949
sL3270L
g1
((lp5950
L11141L
aL1160L
aL1067L
aL2960L
aL6198L
aL10233L
aL6458L
aL5116L
atp5951
Rp5952
sL2389L
g1
((lp5953
L9603L
aL12903L
aL10249L
aL10603L
aL4147L
aL12275L
aL10869L
aL5784L
aL7355L
aL6108L
atp5954
Rp5955
sL1029L
g1
((lp5956
L5475L
aL8327L
aL12331L
aL10288L
aL4126L
atp5957
Rp5958
sL1474L
g1
((lp5959
L3232L
aL324L
aL5000L
aL3913L
aL4851L
aL6206L
atp5960
Rp5961
sL270L
g1
((lp5962
L13363L
aL8116L
aL2548L
aL10488L
aL12605L
atp5963
Rp5964
sL1962L
g1
((lp5965
L7811L
aL11780L
aL5380L
aL5657L
aL9756L
aL11297L
aL5411L
aL812L
aL12334L
aL5806L
aL5299L
aL4536L
aL4024L
aL13240L
aL10433L
aL1490L
aL4566L
aL6999L
aL12637L
aL12001L
aL5618L
atp5966
Rp5967
sL257L
g1
((lp5968
L12610L
aL10725L
aL9704L
aL5134L
aL8467L
aL9524L
atp5969
Rp5970
sL2961L
g1
((lp5971
L11021L
aL4947L
aL13363L
aL3124L
aL4437L
aL10234L
atp5972
Rp5973
sL2382L
g1
((lp5974
L5890L
aL8453L
aL12334L
aL4024L
aL5403L
aL2462L
atp5975
Rp5976
sL2709L
g1
((lp5977
L8258L
aL9603L
aL5615L
aL8561L
aL1271L
aL1661L
atp5978
Rp5979
sL1541L
g1
((lp5980
L2087L
aL6344L
aL3242L
aL715L
aL11374L
aL2224L
aL10289L
aL10738L
aL3577L
atp5981
Rp5982
sL1824L
g1
((lp5983
L4483L
aL6251L
aL13039L
aL7570L
aL11801L
aL12701L
aL4126L
atp5984
Rp5985
sL1220L
g1
((lp5986
L13039L
aL7570L
aL7732L
aL4126L
aL12701L
aL3614L
atp5987
Rp5988
sL2756L
g1
((lp5989
L11460L
aL11689L
aL9226L
aL10542L
aL11728L
aL9878L
aL9340L
atp5990
Rp5991
sL3302L
g1
((lp5992
L7784L
aL2857L
aL107L
aL12079L
aL2962L
aL6075L
atp5993
Rp5994
sL1719L
g1
((lp5995
L1666L
aL11458L
aL8612L
aL614L
aL7089L
aL1430L
atp5996
Rp5997
sL3297L
g1
((lp5998
L7630L
aL4495L
aL7631L
aL1106L
aL1650L
aL8567L
aL3768L
atp5999
Rp6000
sL2204L
g1
((lp6001
L5005L
aL9487L
aL8593L
aL11794L
aL11287L
aL3353L
aL5533L
aL11424L
aL1831L
aL12334L
aL3247L
aL2608L
aL4024L
aL1725L
aL5452L
aL5836L
aL11473L
aL4056L
aL7515L
aL9572L
aL1905L
aL3321L
atp6002
Rp6003
sL1600L
g1
((lp6004
L9944L
aL7050L
aL9173L
aL12855L
atp6005
Rp6006
sL2593L
g1
((lp6007
L7416L
aL3650L
aL867L
aL7011L
aL10667L
aL2673L
aL3729L
aL12664L
aL6232L
aL1693L
atp6008
Rp6009
sL3190L
g1
((lp6010
L3045L
aL10214L
aL2409L
aL6250L
aL682L
aL4076L
aL5325L
aL10925L
aL12496L
aL8658L
aL12314L
aL605L
atp6011
Rp6012
sL1556L
g1
((lp6013
L8834L
aL7556L
aL6950L
aL9799L
aL2252L
aL4024L
aL13018L
aL9565L
aL5373L
atp6014
Rp6015
sL1177L
g1
((lp6016
L6628L
aL1576L
aL12944L
aL12977L
aL6164L
aL10934L
aL10807L
aL10622L
atp6017
Rp6018
sL1183L
g1
((lp6019
L12193L
aL1442L
aL13067L
aL975L
aL3834L
aL1371L
atp6020
Rp6021
sL565L
g1
((lp6022
L3008L
aL8321L
aL12651L
aL10742L
aL12764L
aL9791L
atp6023
Rp6024
sL2093L
g1
((lp6025
L12231L
aL8655L
aL11893L
aL7222L
aL6904L
atp6026
Rp6027
sL834L
g1
((lp6028
L9032L
aL9582L
aL4271L
aL12880L
aL11091L
aL1082L
atp6029
Rp6030
sL3044L
g1
((lp6031
L3203L
aL4645L
aL10183L
aL7403L
aL7790L
aL10966L
atp6032
Rp6033
sL3220L
g1
((lp6034
L1792L
aL1185L
aL4258L
aL4610L
aL2692L
aL2338L
aL3933L
atp6035
Rp6036
sL544L
g1
((lp6037
L5795L
aL13161L
aL1354L
aL4113L
aL3060L
aL3992L
aL6617L
atp6038
Rp6039
sL993L
g1
((lp6040
L9607L
aL4616L
aL12681L
aL2955L
aL4876L
aL4752L
aL6934L
aL8087L
aL920L
aL12955L
aL12702L
aL12449L
aL10533L
aL5171L
aL8248L
aL2109L
aL10302L
aL10689L
aL9667L
aL5587L
aL12247L
aL10591L
aL7656L
aL7659L
aL12911L
aL11247L
aL2679L
atp6041
Rp6042
sL1721L
g1
((lp6043
L6535L
aL1352L
aL5031L
aL12590L
aL12334L
aL1278L
atp6044
Rp6045
sL824L
g1
((lp6046
L4960L
aL417L
aL6144L
aL9505L
aL3239L
aL5132L
aL9261L
aL12494L
aL9646L
aL1648L
aL9004L
aL3858L
aL7311L
aL13240L
aL4024L
aL10777L
aL13180L
aL7389L
atp6047
Rp6048
sL1869L
g1
((lp6049
L9732L
aL5608L
aL1454L
aL8463L
aL6773L
aL3770L
atp6050
Rp6051
sL1597L
g1
((lp6052
L6950L
aL551L
aL2252L
aL4024L
aL7257L
aL8923L
aL3132L
aL11391L
atp6053
Rp6054
sL2674L
g1
((lp6055
L5152L
aL8995L
aL5797L
aL7848L
aL4683L
aL2733L
aL3059L
aL10553L
aL10270L
atp6056
Rp6057
sL2734L
g1
((lp6058
L2242L
aL2628L
aL251L
aL12591L
aL6101L
aL6587L
atp6059
Rp6060
sL1189L
g1
((lp6061
L3043L
aL10789L
aL3276L
aL463L
aL10671L
aL10289L
aL9331L
aL12855L
aL3704L
aL3577L
aL5627L
atp6062
Rp6063
sL3147L
g1
((lp6064
L12992L
aL8834L
aL6950L
aL12334L
aL2478L
aL977L
aL4024L
aL2104L
atp6065
Rp6066
sL1467L
g1
((lp6067
L9287L
aL13039L
aL10288L
aL7570L
aL12701L
aL4126L
atp6068
Rp6069
sL581L
g1
((lp6070
L6466L
aL4042L
aL12108L
aL11948L
aL4533L
aL6109L
atp6071
Rp6072
sL1080L
g1
((lp6073
L9282L
aL4098L
aL3653L
aL3718L
aL12334L
aL11325L
atp6074
Rp6075
sL3265L
g1
((lp6076
L6251L
aL13039L
aL6397L
aL11805L
aL4126L
aL4479L
atp6077
Rp6078
sL905L
g1
((lp6079
L13376L
aL5189L
aL359L
aL6449L
aL7416L
aL12793L
atp6080
Rp6081
sL1426L
g1
((lp6082
L608L
aL11105L
aL9317L
aL1669L
aL11239L
aL10314L
aL2634L
aL7536L
aL3480L
aL7578L
atp6083
Rp6084
sL2334L
g1
((lp6085
L7200L
aL9857L
aL10865L
aL3382L
aL3672L
atp6086
Rp6087
sL1639L
g1
((lp6088
L4608L
aL6689L
aL4963L
aL9348L
aL7524L
aL2790L
aL3077L
aL9800L
aL7945L
aL2762L
aL10443L
aL12613L
aL5223L
aL6387L
aL7738L
aL8543L
atp6089
Rp6090
sL2785L
g1
((lp6091
L3306L
aL2763L
aL2602L
aL3248L
aL2485L
aL3355L
atp6092
Rp6093
sL1505L
g1
((lp6094
L5669L
aL12920L
aL10286L
aL2288L
aL9688L
aL6457L
aL10429L
aL2303L
atp6095
Rp6096
sL1503L
g1
((lp6097
L2755L
aL998L
aL5928L
aL10927L
aL6804L
aL4058L
atp6098
Rp6099
sL41L
g1
((lp6100
L6662L
aL11369L
aL7595L
aL9068L
aL4494L
aL575L
atp6101
Rp6102
sL2245L
g1
((lp6103
L11905L
aL4324L
aL2569L
aL5833L
aL597L
aL11190L
atp6104
Rp6105
s.